(dp1
S'graph'
p2
ccopy_reg
_reconstructor
p3
(cnetworkx.classes.graph
Graph
p4
c__builtin__
object
p5
NtRp6
(dp7
S'node'
p8
(dp9
(S'Salvador'
S'Brazil'
tp10
(dp11
s(S'Benin'
p12
S'Nigeria'
p13
tp14
(dp15
s(S'Dhaka'
S'Bangladesh'
tp16
(dp17
s(S'Guayaquil'
S'Ecuador'
tp18
(dp19
s(S'Kolkata'
S'India'
tp20
(dp21
s(S'Ahmedabad'
p22
S'India'
p23
tp24
(dp25
s(S'Bamako'
S'Mali'
tp26
(dp27
s(S'Alexandria'
S'Egypt'
tp28
(dp29
s(S'Hyderabad'
p30
S'India'
p31
tp32
(dp33
s(S'Mumbai'
p34
S'India'
p35
tp36
(dp37
s(S'Kaduna'
p38
S'Nigeria'
p39
tp40
(dp41
s(S'Saint Petersburg'
p42
S'Russia'
p43
tp44
(dp45
s(S'St. Louis'
p46
S'United States'
p47
tp48
(dp49
s(S'Shenyang'
p50
S'China'
p51
tp52
(dp53
s(S'Ouagadougou'
p54
S'Burkina Faso'
p55
tp56
(dp57
s(S'Tunis'
p58
S'Tunisia'
p59
tp60
(dp61
s(S'Zaria'
p62
S'Nigeria'
p63
tp64
(dp65
s(S'Brazzaville'
p66
S'Republic of the Congo'
p67
tp68
(dp69
s(S'Bucharest'
p70
S'Romania'
p71
tp72
(dp73
s(S'Campinas'
p74
S'Brazil'
p75
tp76
(dp77
s(S'Port Elizabeth'
p78
S'South Africa'
p79
tp80
(dp81
s(S'Houston'
p82
S'United States'
p83
tp84
(dp85
s(S'Cape Town'
S'South Africa'
tp86
(dp87
s(S'Yerevan'
p88
S'Armenia'
p89
tp90
(dp91
s(S'Dallas'
S'United States'
tp92
(dp93
s(S'Baltimore'
p94
S'United States'
p95
tp96
(dp97
s(S'Bremen'
p98
S'Germany'
p99
tp100
(dp101
s(S'Huambo'
S'Angola'
tp102
(dp103
s(S'Tampa Bay'
S'United States'
tp104
(dp105
s(S'Montreal'
p106
S'Canada'
p107
tp108
(dp109
s(S'Taipei'
S'Taiwan'
tp110
(dp111
s(S'Douala'
p112
S'Cameroon'
p113
tp114
(dp115
s(S'Kano'
S'Nigeria'
tp116
(dp117
s(S'Casablanca'
S'Morocco'
tp118
(dp119
s(S'Lagos'
S'Nigeria'
tp120
(dp121
s(S'Rostov-on-Don'
p122
S'Russia'
p123
tp124
(dp125
s(S'Ufa'
p126
S'Russia'
p127
tp128
(dp129
s(S'Guangzhou'
S'China'
tp130
(dp131
s(S'Bangkok'
S'Thailand'
tp132
(dp133
s(S'Seoul'
S'South Korea'
tp134
(dp135
s(S'Zagreb'
p136
S'Croatia'
p137
tp138
(dp139
s(S'Dublin'
p140
S'Republic of Ireland'
p141
tp142
(dp143
s(S'South Yorkshire'
p144
S'United Kingdom'
p145
tp146
(dp147
s(S'Kampala'
S'Uganda'
tp148
(dp149
s(S'Bras\xc3\xadlia'
p150
S'Brazil'
p151
tp152
(dp153
s(S'Prague'
p154
S'Czech Republic'
p155
tp156
(dp157
s(S'Johannesburg'
S'South Africa'
tp158
(dp159
s(S'Harare'
S'Zimbabwe'
tp160
(dp161
s(S'Conakry'
p162
S'Guinea'
p163
tp164
(dp165
s(S'Mexico City'
p166
S'Mexico'
p167
tp168
(dp169
s(S'Mbuji-Mayi'
S'Democratic Republic of the Congo'
tp170
(dp171
s(S'Katowice'
p172
S'Poland'
p173
tp174
(dp175
s(S'Delhi'
S'India'
tp176
(dp177
s(S'Beijing'
S'China'
tp178
(dp179
s(S'Vereeniging'
p180
S'South Africa'
p181
tp182
(dp183
s(S'Durban'
p184
S'South Africa'
p185
tp186
(dp187
s(S'Barcelona'
p188
S'Spain'
p189
tp190
(dp191
s(S'Cardiff'
p192
S'United Kingdom'
p193
tp194
(dp195
s(S'Monterrey'
p196
S'Mexico'
p197
tp198
(dp199
s(S'Wuhan'
p200
S'China'
p201
tp202
(dp203
s(S'Chongqing'
S'China'
tp204
(dp205
s(S'Cali'
S'Colombia'
tp206
(dp207
s(S'San Juan'
S'Puerto Rico'
tp208
(dp209
s(S'Rabat'
p210
S'Morocco'
p211
tp212
(dp213
s(S'Rome'
p214
S'Italy'
p215
tp216
(dp217
s(S'Dnipropetrovsk'
p218
S'Ukraine'
p219
tp220
(dp221
s(S'Bristol'
p222
S'United Kingdom'
p223
tp224
(dp225
s(S'Monrovia'
p226
S'Liberia'
p227
tp228
(dp229
s(S'The Hague'
p230
S'Netherlands'
p231
tp232
(dp233
s(S'Chicago'
p234
S'United States'
p235
tp236
(dp237
s(S'Delaware Valley'
S'United States'
tp238
(dp239
s(S'Freetown'
p240
S'Sierra Leone'
p241
tp242
(dp243
s(S'Algiers'
S'Algeria'
tp244
(dp245
s(S'Lubumbashi'
p246
S'Democratic Republic of the Congo'
p247
tp248
(dp249
s(S'Bogot\xc3\xa1'
S'Colombia'
tp250
(dp251
s(S'Porto'
p252
S'Portugal'
p253
tp254
(dp255
s(S'Rio de Janeiro'
p256
S'Brazil'
p257
tp258
(dp259
s(S'F\xc3\xa8s'
p260
S'Morocco'
p261
tp262
(dp263
s(S'Berlin'
p264
S'Germany'
p265
tp266
(dp267
s(S'Glasgow'
p268
S'United Kingdom'
p269
tp270
(dp271
s(S'Abidjan'
S'Ivory Coast'
tp272
(dp273
s(S'Saarbr\xc3\xbccken'
p274
S'Germany'
p275
tp276
(dp277
s(S'Toronto'
p278
S'Canada'
p279
tp280
(dp281
s(S'Newcastle'
p282
S'United Kingdom'
p283
tp284
(dp285
s(S'Minneapolis'
p286
S'United States'
p287
tp288
(dp289
s(S'Donetsk'
S'Ukraine'
tp290
(dp291
s(S'Ho Chi Minh City'
S'Vietnam'
tp292
(dp293
s(S'Dar es Salaam'
S'Tanzania'
tp294
(dp295
s(S'Shenzhen'
S'China'
tp296
(dp297
s(S'Abuja'
p298
S'Nigeria'
p299
tp300
(dp301
s(S'Turin'
p302
S'Italy'
p303
tp304
(dp305
s(S'Porto Alegre'
S'Brazil'
tp306
(dp307
s(S'Port Harcourt'
p308
S'Nigeria'
p309
tp310
(dp311
s(S'Ndjamena'
p312
S'Chad'
p313
tp314
(dp315
s(S'Newcastle upon Tyne'
p316
S'United Kingdom'
p317
tp318
(dp319
s(S'Ogbomosho'
p320
S'Nigeria'
p321
tp322
(dp323
s(S'Seville'
p324
S'Spain'
p325
tp326
(dp327
s(S'Curitiba'
p328
S'Brazil'
p329
tp330
(dp331
s(S'Puebla'
p332
S'Mexico'
p333
tp334
(dp335
s(S'Lahore'
S'Pakistan'
tp336
(dp337
s(S'Bangalore'
S'India'
tp338
(dp339
s(S'Baku'
p340
S'Azerbaijan'
p341
tp342
(dp343
s(S'Athens'
S'Greece'
tp344
(dp345
s(S'Dakar'
S'Senegal'
tp346
(dp347
s(S'Samara'
p348
S'Russia'
p349
tp350
(dp351
s(S'Tbilisi'
p352
S'Georgia'
p353
tp354
(dp355
s(S'Brussels-Capital Region'
p356
S'Belgium'
p357
tp358
(dp359
s(S'Tehran'
S'Iran'
tp360
(dp361
s(S'Hamburg'
p362
S'Germany'
p363
tp364
(dp365
s(S'Cotonou'
p366
S'Benin'
p367
tp368
(dp369
s(S'Budapest'
p370
S'Hungary'
p371
tp372
(dp373
s(S'Nairobi'
S'Kenya'
tp374
(dp375
s(S'Riga'
S'Latvia'
tp376
(dp377
s(S'Lusaka'
p378
S'Zambia'
p379
tp380
(dp381
s(S'Saratov'
p382
S'Russia'
p383
tp384
(dp385
s(S'Yaound\xc3\xa9'
p386
S'Cameroon'
p387
tp388
(dp389
s(S'Copenhagen'
p390
S'Denmark'
p391
tp392
(dp393
s(S'Rotterdam'
p394
S'Netherlands'
p395
tp396
(dp397
s(S'Antwerp'
S'Belgium'
tp398
(dp399
s(S'Boston'
p400
S'United States'
p401
tp402
(dp403
s(S'S\xc3\xa3o Paulo'
p404
S'Brazil'
p405
tp406
(dp407
s(S'Portsmouth'
p408
S'United Kingdom'
p409
tp410
(dp411
s(S'Shanghai'
S'China'
tp412
(dp413
s(S'Manila'
S'Philippines'
tp414
(dp415
s(S'Luanda'
p416
S'Angola'
p417
tp418
(dp419
s(S'Kharkiv'
p420
S'Ukraine'
p421
tp422
(dp423
s(S'Ruhr'
p424
S'Germany'
p425
tp426
(dp427
s(S'Volgograd'
p428
S'Russia'
p429
tp430
(dp431
s(S'Belo Horizonte'
S'Brazil'
tp432
(dp433
s(S'Brussels'
p434
S'Belgium'
p435
tp436
(dp437
s(S'Recife'
S'Brazil'
tp438
(dp439
s(S'Guadalajara'
p440
S'Mexico'
p441
tp442
(dp443
s(S'Los Angeles'
S'United States'
tp444
(dp445
s(S'Tripoli'
S'Libya'
tp446
(dp447
s(S'Fortaleza'
S'Brazil'
tp448
(dp449
s(S'Guadalajara Metropolitan Area'
S'Mexico'
tp450
(dp451
s(S'Belgrade'
S'Serbia'
tp452
(dp453
s(S'Santo Domingo'
S'Dominican Republic'
tp454
(dp455
s(S'Helsinki'
p456
S'Finland'
p457
tp458
(dp459
s(S'Accra'
p460
S'Ghana'
p461
tp462
(dp463
s(S'Stuttgart'
p464
S'Germany'
p465
tp466
(dp467
s(S'Kinshasa'
S'Democratic Republic of the Congo'
tp468
(dp469
s(S'New York City'
p470
S'United States'
p471
tp472
(dp473
s(S'Washington D.C.'
S'United States'
tp474
(dp475
s(S'Thessaloniki'
p476
S'Greece'
p477
tp478
(dp479
s(S'Pretoria'
p480
S'South Africa'
p481
tp482
(dp483
s(S'Karachi'
S'Pakistan'
tp484
(dp485
s(S'San Francisco'
S'United States'
tp486
(dp487
s(S'Kumasi'
p488
S'Ghana'
p489
tp490
(dp491
s(S'Vienna'
p492
S'Austria'
p493
tp494
(dp495
s(S'Sofia'
p496
S'Bulgaria'
p497
tp498
(dp499
s(S'Zurich'
p500
S'Switzerland'
p501
tp502
(dp503
s(S'Maiduguri'
p504
S'Nigeria'
p505
tp506
(dp507
s(S'Ibadan'
p508
S'Nigeria'
p509
tp510
(dp511
s(S'Maputo'
p512
S'Mozambique'
p513
tp514
(dp515
s(S'Metro Manila'
S'Philippines'
tp516
(dp517
s(S'Valencia'
p518
S'Spain'
p519
tp520
(dp521
s(S'Tianjin'
p522
S'China'
p523
tp524
(dp525
s(S'Stockholm'
p526
S'Sweden'
p527
tp528
(dp529
s(S'Phoenix'
S'United States'
tp530
(dp531
s(S'Chennai'
p532
S'India'
p533
tp534
(dp535
s(S'Kazan'
S'Russia'
tp536
(dp537
s(S'Cairo'
S'Egypt'
tp538
(dp539
s(S'Frankfurt'
p540
S'Germany'
p541
tp542
(dp543
s(S'Warsaw'
p544
S'Poland'
p545
tp546
(dp547
s(S'Atlanta'
S'United States'
tp548
(dp549
s(S'Istanbul'
p550
S'Turkey'
p551
tp552
(dp553
s(S'United States'
p554
S'Mexico'
p555
tp556
(dp557
s(S'Oran'
p558
S'Algeria'
p559
tp560
(dp561
ssg2
(dp562
sS'edge'
p563
(dp564
g10
(dp565
g438
(dp566
S'weight'
p567
F675.08385815869246
sssg14
(dp568
(g308
g309
tp569
(dp570
g567
F230.41516653638686
ss(g460
g461
tp571
(dp572
g567
F649.42775540930472
ss(g386
g387
tp573
(dp574
g567
F707.43092206138635
ssg116
(dp575
g567
F704.39539017657557
ss(g320
g321
tp576
(dp577
g567
F250.55756502474551
ssg120
(dp578
g567
F244.15902841570076
ss(g62
g63
tp579
(dp580
g567
F574.8260950122276
ss(g112
g113
tp581
(dp582
g567
F518.3510743008037
ss(g366
g367
tp583
(dp584
g567
F352.67280167780257
ss(g298
g299
tp585
(dp586
g567
F365.61686370661033
ss(g508
g509
tp587
(dp588
g567
F222.23577657705746
ss(g38
g39
tp589
(dp590
g567
F504.92026224084884
sssg16
(dp591
g20
(dp592
g567
F244.05101555037271
sssg18
(dp593
g206
(dp594
g567
F728.82574583856581
sssg20
(dp595
g16
g592
ssg24
(dp596
g484
(dp597
g567
F598.82133520896821
ss(g34
g35
tp598
(dp599
g567
F441.63721429827814
ssg176
(dp600
g567
F776.84113370346802
sssg26
(dp601
g242
(dp602
g567
F735.11113439393705
ss(g162
g163
tp603
(dp604
g567
F709.2217946110726
ss(g54
g55
tp605
(dp606
g567
F702.19581326588991
ss(g226
g227
tp607
(dp608
g567
F769.22541649323762
sssg28
(dp609
g538
(dp610
g567
F179.86741756366288
sssg32
(dp611
g36
(dp612
g567
F621.07211618592532
ss(g532
g533
tp613
(dp614
g567
F517.27227787525965
ssg338
(dp615
g567
F499.68443193626882
sssg36
(dp616
(g22
g23
tp617
g599
s(g30
g31
tp618
g612
ssg40
(dp619
(g308
g309
tp620
(dp621
g567
F638.69136940529586
ssg116
(dp622
g567
F202.75642470759993
ss(g320
g321
tp623
(dp624
g567
F438.15188991776222
ssg120
(dp625
g567
F632.29216683217737
ss(g504
g505
tp626
(dp627
g567
F640.1410496948132
ss(g12
g13
tp628
g590
s(g62
g63
tp629
(dp630
g567
F69.980767819079887
ssg581
(dp631
g567
F761.25426246365259
ss(g366
g367
tp632
(dp633
g567
F717.3553246780989
ssg585
(dp634
g567
F161.22440910160819
ssg587
(dp635
g567
F518.84876851732065
sssg44
(dp636
(g456
g457
tp637
(dp638
g567
F300.31292658731132
ss(g526
g527
tp639
(dp640
g567
F691.60815248193728
ssg376
(dp641
g567
F490.83797443309334
sssg48
(dp642
g238
(dp643
g567
F254.01744667829556
ssg548
(dp644
g567
F751.65851926118114
ss(g234
g235
tp645
(dp646
g567
F421.86939033764185
ss(g286
g287
tp647
(dp648
g567
F750.49963892188396
ss(g554
g555
tp649
(dp650
g567
F157.59491590609406
sssg52
(dp651
g134
(dp652
g567
F560.13840716155846
ssg178
(dp653
g567
F626.82399472520183
ss(g522
g523
tp654
(dp655
g567
F607.30344810943086
sssg56
(dp656
(g320
g321
tp657
(dp658
g567
F787.97752592159884
ss(g488
g489
tp659
(dp660
g567
F630.98864866458132
ss(g366
g367
tp661
(dp662
g567
F795.78462568781288
ssg571
(dp663
g567
F770.73775005816867
ssg26
g606
ssg60
(dp664
g244
(dp665
g567
F633.90817238084253
ssg216
(dp666
g567
F597.89546946203268
ssg446
(dp667
g567
F517.50097734518658
sssg64
(dp668
(g308
g309
tp669
(dp670
g567
F704.11704251271487
ssg116
(dp671
g567
F134.19620267287101
ss(g320
g321
tp672
(dp673
g567
F501.53622077490331
ssg120
(dp674
g567
F699.02841367823964
ss(g504
g505
tp675
(dp676
g567
F597.67315843608503
ss(g12
g13
tp677
g580
s(g366
g367
tp678
(dp679
g567
F781.68252937872478
ssg585
(dp680
g567
F225.38675547670513
ssg587
(dp681
g567
F584.22937483146893
ssg589
g630
ssg68
(dp682
g468
(dp683
g567
F7.97735746729618
ss(g416
g417
tp684
(dp685
g567
F556.08237802158465
sssg72
(dp686
g344
(dp687
g567
F743.51661254064607
ss(g496
g497
tp688
(dp689
g567
F295.51040040370543
ss(g550
g551
tp690
(dp691
g567
F447.21897395374867
ss(g370
g371
tp692
(dp693
g567
F642.83725155659693
ssg452
(dp694
g567
F448.174330324138
ss(g476
g477
tp695
(dp696
g567
F494.47098535233511
sssg76
(dp697
(g150
g151
tp698
(dp699
g567
F797.1621564774224
ss(g328
g329
tp700
(dp701
g567
F358.73046925703198
ss(g404
g405
tp702
(dp703
g567
F83.459950527694957
ssg432
(dp704
g567
F463.37209686458147
ss(g256
g257
tp705
(dp706
g567
F394.45962117658092
sssg80
(dp707
g86
(dp708
g567
F658.74812916929557
ss(g184
g185
tp709
(dp710
g567
F685.47140369872409
sssg84
(dp711
g92
(dp712
g567
F362.06116380984793
ss(g196
g197
tp713
(dp714
g567
F664.98169243321058
sssg86
(dp715
g80
g708
ssg90
(dp716
g360
(dp717
g567
F783.76070552572526
ss(g340
g341
tp718
(dp719
g567
F454.23201920717412
ss(g352
g353
tp720
(dp721
g567
F171.22678153915476
sssg92
(dp722
g84
g712
ssg96
(dp723
(g106
g107
tp724
(dp725
g567
F735.01649901423173
ss(g400
g401
tp726
(dp727
g567
F577.92349543181786
ss(g278
g279
tp728
(dp729
g567
F536.83766151930718
ssg474
(dp730
g567
F56.139556565716553
ss(g470
g471
tp731
(dp732
g567
F272.4811324143152
sssg100
(dp733
(g274
g275
tp734
(dp735
g567
F444.74110659857445
ss(g230
g231
tp736
(dp737
g567
F323.91140589234413
ss(g154
g155
tp738
(dp739
g567
F512.48393200114356
ss(g264
g265
tp740
(dp741
g567
F315.49764186826002
ss(g282
g283
tp742
(dp743
g567
F711.30529957945112
ss(g492
g493
tp744
(dp745
g567
F759.31159636955613
ss(g316
g317
tp746
(dp747
g567
F711.30529957945112
ss(g356
g357
tp748
(dp749
g567
F392.5392140269804
ss(g500
g501
tp750
(dp751
g567
F634.86940966519876
ss(g222
g223
tp752
(dp753
g567
F794.40614265080819
ss(g390
g391
tp754
(dp755
g567
F377.65426373980108
ss(g394
g395
tp756
(dp757
g567
F319.10543825645323
ss(g362
g363
tp758
(dp759
g567
F94.92276495658777
ssg398
(dp760
g567
F364.16508726783957
ss(g540
g541
tp761
(dp762
g567
F329.96402809081309
ss(g464
g465
tp763
(dp764
g567
F479.00730262113467
ss(g408
g409
tp765
(dp766
g567
F721.52093833953006
ss(g172
g173
tp767
(dp768
g567
F769.86249247591422
ss(g434
g435
tp769
(dp770
g567
F392.54027416395434
ss(g144
g145
tp771
(dp772
g567
F673.8177934151264
ss(g424
g425
tp773
(dp774
g567
F227.85244125797894
sssg102
(dp775
g684
(dp776
g567
F514.7173626316312
sssg104
(dp777
g548
(dp778
g567
F693.59443103990679
sssg108
(dp779
g726
(dp780
g567
F402.92649657247648
ssg728
(dp781
g567
F505.1941033387937
ssg474
(dp782
g567
F787.39319797568442
ss(g94
g95
tp783
g725
sg731
(dp784
g567
F534.0266132772233
sssg110
(dp785
g412
(dp786
g567
F682.28449953481027
sssg114
(dp787
(g308
g309
tp788
(dp789
g567
F310.26154107484439
ssg388
(dp790
g567
F201.69267970793814
ss(g320
g321
tp791
(dp792
g567
F754.65223913174964
ssg120
(dp793
g567
F744.92837727069627
ss(g12
g13
tp794
g582
sg587
(dp795
g567
F740.40221632010287
ss(g298
g299
tp796
(dp797
g567
F609.33043000798716
ss(g38
g39
tp798
g631
ssg116
(dp799
(g320
g321
tp800
(dp801
g567
F634.40447915020673
ssg506
(dp802
g567
F504.11774129588446
ss(g12
g13
tp803
g575
s(g62
g63
tp804
g671
sg314
(dp805
g567
F709.49546233882529
ss(g508
g509
tp806
(dp807
g567
F717.9439900125451
ss(g298
g299
tp808
(dp809
g567
F344.95872485810963
ss(g38
g39
tp810
g622
ssg118
(dp811
g212
(dp812
g567
F87.594442747783802
ssg262
(dp813
g567
F244.97600493837231
ssg326
(dp814
g567
F452.18580102065846
ssg560
(dp815
g567
F679.38278835520043
sssg120
(dp816
g490
(dp817
g567
F557.06122643788126
ssg310
(dp818
g567
F437.34985236018576
ssg462
(dp819
g567
F411.37429939003266
ssg322
(dp820
g567
F209.21436712175276
ssg64
g674
sg14
g578
sg114
g793
sg368
(dp821
g567
F109.05051276560168
ssg300
(dp822
g567
F534.28479004656788
ssg510
(dp823
g567
F119.55857679495399
ssg40
g625
ssg124
(dp824
(g428
g429
tp825
(dp826
g567
F394.43228320911101
ss(g382
g383
tp827
(dp828
g567
F662.54882998549374
ssg290
(dp829
g567
F167.57478009412841
ss(g218
g219
tp830
(dp831
g567
F373.71521592912751
ss(g352
g353
tp832
(dp833
g567
F732.85304795944955
ss(g420
g421
tp834
(dp835
g567
F400.18241755967063
sssg128
(dp836
(g348
g349
tp837
(dp838
g567
F414.54632835096999
ss(g382
g383
tp839
(dp840
g567
F752.46325665009658
ssg536
(dp841
g567
F449.5176219556235
sssg130
(dp842
g296
(dp843
g567
F104.13664393573265
sssg132
(dp844
g292
(dp845
g567
F737.28922754617827
sssg134
(dp846
(g50
g51
tp847
g652
ssg138
(dp848
(g274
g275
tp849
(dp850
g567
F773.34346005887517
ss(g154
g155
tp851
(dp852
g567
F487.31776204195046
ss(g492
g493
tp853
(dp854
g567
F267.84503782135323
ssg688
(dp855
g567
F678.9189977278653
ss(g214
g215
tp856
(dp857
g567
F517.78035442578732
ss(g464
g465
tp858
(dp859
g567
F608.5271584988335
ssg740
(dp860
g567
F768.16076385362385
ss(g540
g541
tp861
(dp862
g567
F722.47479939489108
ss(g500
g501
tp863
(dp864
g567
F593.50815401666739
ss(g370
g371
tp865
(dp866
g567
F299.31744028662706
ssg452
(dp867
g567
F367.29899857865337
ss(g172
g173
tp868
(dp869
g567
F543.90344438401848
ss(g302
g303
tp870
(dp871
g567
F651.46897148012067
sssg142
(dp872
(g282
g283
tp873
(dp874
g567
F351.99838622371743
ss(g434
g435
tp875
(dp876
g567
F774.90369620682247
ss(g192
g193
tp877
(dp878
g567
F294.42248546078315
ss(g356
g357
tp879
(dp880
g567
F774.90406629065592
ss(g222
g223
tp881
(dp882
g567
F326.044027818595
ss(g394
g395
tp883
(dp884
g567
F740.77308538838111
ss(g230
g231
tp885
(dp886
g567
F724.37681590816817
ssg398
(dp887
g567
F761.70575520685099
ss(g408
g409
tp888
(dp889
g567
F451.71503024737387
ss(g144
g145
tp890
(dp891
g567
F327.05857213220975
ss(g268
g269
tp892
(dp893
g567
F307.83872743682218
ss(g316
g317
tp894
(dp895
g567
F351.99838622371743
sssg146
(dp896
g849
(dp897
g567
F743.83527426519299
ssg885
(dp898
g567
F408.85857368006066
ss(g424
g425
tp899
(dp900
g567
F599.75302239487644
ss(g282
g283
tp901
(dp902
g567
F168.70648541014234
ss(g434
g435
tp903
(dp904
g567
F484.04707460674604
ssg877
(dp905
g567
F254.03203293554066
ssg879
(dp906
g567
F484.04719190987481
ss(g222
g223
tp907
(dp908
g567
F239.67401541029739
ss(g362
g363
tp909
(dp910
g567
F747.30979459811658
ssg398
(dp911
g567
F462.1730749390311
ss(g540
g541
tp912
(dp913
g567
F781.66392865496641
ssg888
(dp914
g567
F295.28176116253275
ss(g98
g99
tp915
g772
s(g140
g141
tp916
g891
sg883
(dp917
g567
F427.00467886182901
ss(g268
g269
tp918
(dp919
g567
F325.76315669433984
ss(g316
g317
tp920
(dp921
g567
F168.70648541014234
sssg148
(dp922
g374
(dp923
g567
F503.88091697312899
sssg152
(dp924
g432
(dp925
g567
F624.18808954058352
ss(g74
g75
tp926
g699
ssg156
(dp927
(g274
g275
tp928
(dp929
g567
F543.02379414810537
ss(g136
g137
tp930
g852
s(g424
g425
tp931
(dp932
g567
F552.59471664956175
ssg740
(dp933
g567
F280.84415206641495
ssg915
g739
s(g492
g493
tp934
(dp935
g567
F250.71766433663495
ss(g434
g435
tp936
(dp937
g567
F718.08970012700252
ssg879
(dp938
g567
F718.08898200608519
ss(g500
g501
tp939
(dp940
g567
F526.51276337395586
ss(g390
g391
tp941
(dp942
g567
F634.8048914543067
ss(g394
g395
tp943
(dp944
g567
F725.26489926272791
ssg885
(dp945
g567
F740.98538542263066
ssg398
(dp946
g567
F717.83045183833758
ss(g362
g363
tp947
(dp948
g567
F492.12405739225221
ss(g464
g465
tp949
(dp950
g567
F406.33952119890989
ss(g370
g371
tp951
(dp952
g567
F442.11952584182507
ssg452
(dp953
g567
F738.38835355172398
ss(g172
g173
tp954
(dp955
g567
F327.04014052721715
ss(g302
g303
tp956
(dp957
g567
F751.41171800305915
ss(g544
g545
tp958
(dp959
g567
F516.74296582544378
ss(g540
g541
tp960
(dp961
g567
F410.24635007626853
sssg158
(dp962
g514
(dp963
g567
F453.46713885274352
ssg482
(dp964
g567
F55.245739221519308
ssg186
(dp965
g567
F500.25805262445903
ssg182
(dp966
g567
F50.450605325794754
sssg160
(dp967
g248
(dp968
g567
F785.2697306161316
ssg380
(dp969
g567
F398.9518106632259
sssg164
(dp970
(g240
g241
tp971
(dp972
g567
F126.989993646085
ssg26
g604
s(g226
g227
tp973
(dp974
g567
F479.45549618512956
ssg346
(dp975
g567
F705.54967707480739
sssg168
(dp976
(g440
g441
tp977
(dp978
g567
F460.63977478481775
ss(g332
g333
tp979
(dp980
g567
F106.53980984214317
ss(g196
g197
tp981
(dp982
g567
F703.89560779837132
ssg450
(dp983
g567
F458.84937363309757
sssg170
(dp984
(g246
g247
tp985
(dp986
g567
F748.01879268372954
sssg174
(dp987
(g136
g137
tp988
g869
sg851
g955
sg853
(dp989
g567
F298.6344307823789
ss(g390
g391
tp990
(dp991
g567
F739.74775123674999
ss(g362
g363
tp992
(dp993
g567
F717.97665561745191
ss(g540
g541
tp994
(dp995
g567
F735.41952451098803
ss(g464
g465
tp996
(dp997
g567
F728.45172450589439
ss(g370
g371
tp998
(dp999
g567
F307.48330404966441
ssg452
(dp1000
g567
F614.51653758818384
ssg915
g768
sg740
(dp1001
g567
F462.9312670828163
ss(g544
g545
tp1002
(dp1003
g567
F258.43872039367648
sssg176
(dp1004
g24
g600
sg336
(dp1005
g567
F425.93723025485718
sssg178
(dp1006
g52
g653
sg524
(dp1007
g567
F113.71108425463937
sssg182
(dp1008
g158
g966
s(g512
g513
tp1009
(dp1010
g567
F465.89632122120366
ss(g480
g481
tp1011
(dp1012
g567
F105.35690061459573
ssg709
(dp1013
g567
F465.23695108227304
sssg186
(dp1014
g158
g965
s(g512
g513
tp1015
(dp1016
g567
F458.58634029645407
ss(g480
g481
tp1017
(dp1018
g567
F535.23611001727522
ss(g180
g181
tp1019
g1013
s(g78
g79
tp1020
g710
ssg190
(dp1021
(g302
g303
tp1022
(dp1023
g567
F605.52001598088316
ssg244
(dp1024
g567
F520.16932852725677
ss(g518
g519
tp1025
(dp1026
g567
F302.97689102978688
ss(g558
g559
tp1027
(dp1028
g567
F677.41968749052444
sssg194
(dp1029
(g274
g275
tp1030
(dp1031
g567
F762.42505656631795
ss(g424
g425
tp1032
(dp1033
g567
F695.00470956972038
ss(g282
g283
tp1034
(dp1035
g567
F402.18140173915606
ss(g434
g435
tp1036
(dp1037
g567
F529.19314985201822
ssg879
(dp1038
g567
F529.19375862457434
ss(g222
g223
tp1039
(dp1040
g567
F41.035009205547333
ss(g394
g395
tp1041
(dp1042
g567
F529.6323513309535
ss(g230
g231
tp1043
(dp1044
g567
F518.19985449601961
ssg398
(dp1045
g567
F526.78852525899958
ss(g408
g409
tp1046
(dp1047
g567
F163.70555329347565
ss(g140
g141
tp1048
g878
s(g144
g145
tp1049
g905
s(g268
g269
tp1050
(dp1051
g567
F492.09983356892542
ss(g316
g317
tp1052
(dp1053
g567
F402.18140173915606
sssg198
(dp1054
(g82
g83
tp1055
g714
sg450
(dp1056
g567
F637.93205528994963
ss(g440
g441
tp1057
(dp1058
g567
F636.14695246385963
ss(g332
g333
tp1059
(dp1060
g567
F767.95866980519827
ss(g166
g167
tp1061
g982
ssg202
(dp1062
g204
(dp1063
g567
F754.19381120299738
ssg412
(dp1064
g567
F686.96797785795275
sssg204
(dp1065
(g200
g201
tp1066
g1063
ssg206
(dp1067
g250
(dp1068
g567
F301.10293110039589
ssg18
g594
ssg208
(dp1069
g454
(dp1070
g567
F408.68211667937561
sssg212
(dp1071
g118
g812
s(g260
g261
tp1072
(dp1073
g567
F168.80467626869532
ss(g324
g325
tp1074
(dp1075
g567
F382.59950949344739
ss(g558
g559
tp1076
(dp1077
g567
F595.29757933690132
sssg216
(dp1078
g988
g857
sg853
(dp1079
g567
F765.1354495092412
ss(g500
g501
tp1080
(dp1081
g567
F683.52105731699532
ss(g58
g59
tp1082
g666
sg452
(dp1083
g567
F721.72792391062137
ss(g302
g303
tp1084
(dp1085
g567
F523.58061919673912
sssg220
(dp1086
g290
(dp1087
g567
F210.01661906053559
ss(g428
g429
tp1088
(dp1089
g567
F696.25587347955457
ss(g420
g421
tp1090
(dp1091
g567
F190.37838223179833
ss(g122
g123
tp1092
g831
ssg224
(dp1093
g849
(dp1094
g567
F722.2014606575799
ss(g424
g425
tp1095
(dp1096
g567
F654.31583854075086
ss(g282
g283
tp1097
(dp1098
g567
F396.85061771696303
ssg398
(dp1099
g567
F485.84969289626048
ss(g434
g435
tp1100
(dp1101
g567
F488.1614187701191
ssg877
g1040
sg879
(dp1102
g567
F488.16202665308646
ssg883
(dp1103
g567
F489.61692457190691
ssg885
(dp1104
g567
F478.51552713648061
ss(g140
g141
tp1105
g882
sg888
(dp1106
g567
F126.60818633786644
ssg915
g753
sg890
g908
s(g268
g269
tp1107
(dp1108
g567
F502.09216149659289
ssg894
(dp1109
g567
F396.85061771696303
sssg228
(dp1110
(g240
g241
tp1111
(dp1112
g567
F361.4680643392868
ssg272
(dp1113
g567
F755.99761249565995
ss(g162
g163
tp1114
g974
sg26
g608
ssg232
(dp1115
(g274
g275
tp1116
(dp1117
g567
F367.37228449590998
ss(g424
g425
tp1118
(dp1119
g567
F191.06065735867637
ss(g282
g283
tp1120
(dp1121
g567
F506.92998792531034
ss(g140
g141
tp1122
g886
s(g316
g317
tp1123
(dp1124
g567
F506.92998792531034
ssg877
g1044
s(g464
g465
tp1125
(dp1126
g567
F503.26969602256378
ss(g434
g435
tp1127
(dp1128
g567
F135.63619841596167
ss(g394
g395
tp1129
(dp1130
g567
F20.438542430388569
ss(g154
g155
tp1131
g945
sg879
(dp1132
g567
F135.63547359222355
ss(g500
g501
tp1133
(dp1134
g567
F604.51260636214465
ss(g222
g223
tp1135
g1104
s(g362
g363
tp1136
(dp1137
g567
F416.13577172489914
ssg915
g737
s(g390
g391
tp1138
(dp1139
g567
F673.02742090105528
ss(g144
g145
tp1140
g898
sg398
(dp1141
g567
F94.860821450700058
ss(g540
g541
tp1142
(dp1143
g567
F375.3112679372814
ss(g408
g409
tp1144
(dp1145
g567
F397.97312536859596
ssg740
(dp1146
g567
F620.42743656279913
ss(g268
g269
tp1147
(dp1148
g567
F699.38923892804837
sssg236
(dp1149
g238
(dp1150
g567
F487.28656759597163
ss(g278
g279
tp1151
(dp1152
g567
F700.74073477003481
ss(g46
g47
tp1153
g646
sg649
(dp1154
g567
F468.56068706666719
ss(g286
g287
tp1155
(dp1156
g567
F570.73177943066219
sssg238
(dp1157
g48
g643
sg236
g1150
sg288
(dp1158
g567
F577.90908076535095
ssg556
(dp1159
g567
F100.95296466179576
sssg242
(dp1160
g1114
g972
s(g226
g227
tp1161
g1112
sg26
g602
ssg244
(dp1162
(g558
g559
tp1163
(dp1164
g567
F349.69766791667513
ss(g260
g261
tp1165
(dp1166
g567
F788.37173147672638
ssg190
g1024
sg520
(dp1167
g567
F424.77437764246923
ssg60
g665
ssg248
(dp1168
g170
g986
sg160
g968
s(g378
g379
tp1169
(dp1170
g567
F425.04681690649903
sssg250
(dp1171
g206
g1068
ssg254
(dp1172
(g324
g325
tp1173
(dp1174
g567
F476.40675179365979
ss(g518
g519
tp1175
(dp1176
g567
F723.24250646615769
sssg258
(dp1177
g700
(dp1178
g567
F675.65474562772761
ss(g404
g405
tp1179
(dp1180
g567
F357.44767627778134
ssg432
(dp1181
g567
F340.1139925884097
ss(g74
g75
tp1182
g706
ssg262
(dp1183
g244
g1166
s(g518
g519
tp1184
(dp1185
g567
F730.81849314420049
ssg118
g813
s(g324
g325
tp1186
(dp1187
g567
F383.18306084728238
ss(g210
g211
tp1188
g1073
sg1027
(dp1189
g567
F438.93430632352369
sssg266
(dp1190
(g274
g275
tp1191
(dp1192
g567
F578.16906101743575
ss(g136
g137
tp1193
g860
s(g154
g155
tp1194
g933
s(g492
g493
tp1195
(dp1196
g567
F523.10485691453789
ss(g434
g435
tp1197
(dp1198
g567
F650.28849157371189
ss(g356
g357
tp1199
(dp1200
g567
F650.287524306666
ss(g500
g501
tp1201
(dp1202
g567
F669.51762263675505
ss(g424
g425
tp1203
(dp1204
g567
F464.57689540035869
ss(g390
g391
tp1205
(dp1206
g567
F355.02877676341177
ss(g394
g395
tp1207
(dp1208
g567
F610.72161739732076
ss(g362
g363
tp1209
(dp1210
g567
F255.1986995951867
ssg398
(dp1211
g567
F633.96336057088251
ss(g540
g541
tp1212
(dp1213
g567
F423.26183892259758
ss(g464
g465
tp1214
(dp1215
g567
F511.35411963653087
ss(g370
g371
tp1216
(dp1217
g567
F687.4835524215855
ss(g230
g231
tp1218
g1146
s(g98
g99
tp1219
g741
s(g172
g173
tp1220
g1001
sg546
(dp1221
g567
F516.77482049320349
sssg270
(dp1222
(g282
g283
tp1223
(dp1224
g567
F193.08724127121803
ssg875
(dp1225
g567
F796.42800438077495
ssg877
g1051
sg879
(dp1226
g567
F796.42796342988299
ssg881
g1108
sg883
(dp1227
g567
F719.37978152871267
ssg885
g1148
sg398
(dp1228
g567
F769.09013714541049
ssg888
(dp1229
g567
F598.85298749782123
ss(g140
g141
tp1230
g893
sg890
g919
sg894
(dp1231
g567
F193.08724127121803
sssg272
(dp1232
(g488
g489
tp1233
(dp1234
g567
F305.31475380921842
ss(g366
g367
tp1235
(dp1236
g567
F723.35301158593472
ssg228
g1113
s(g460
g461
tp1237
(dp1238
g567
F424.54752445123216
sssg276
(dp1239
(g136
g137
tp1240
g850
sg885
g1117
sg851
g929
sg740
g1192
s(g492
g493
tp1241
(dp1242
g567
F696.42421602218531
ss(g434
g435
tp1243
(dp1244
g567
F260.06644146503885
ssg879
(dp1245
g567
F260.06638484969477
ssg877
g1031
s(g500
g501
tp1246
(dp1247
g567
F237.15390196601805
ss(g222
g223
tp1248
g1094
s(g464
g465
tp1249
(dp1250
g567
F167.41601292079636
ssg883
(dp1251
g567
F347.02294217219844
ss(g362
g363
tp1252
(dp1253
g567
F522.05517583487119
ssg398
(dp1254
g567
F286.96737371422387
ss(g540
g541
tp1255
(dp1256
g567
F155.0697546397283
ssg888
(dp1257
g567
F602.48722471967335
ssg915
g735
s(g144
g145
tp1258
g897
s(g424
g425
tp1259
(dp1260
g567
F241.02569713049559
ss(g302
g303
tp1261
(dp1262
g567
F466.20845677895221
sssg280
(dp1263
(g106
g107
tp1264
g781
sg731
(dp1265
g567
F549.99385286911433
ss(g400
g401
tp1266
(dp1267
g567
F691.2067669371861
ssg474
(dp1268
g567
F562.56604265967906
ssg645
g1152
s(g94
g95
tp1269
g729
ssg284
(dp1270
g885
g1121
s(g424
g425
tp1271
(dp1272
g567
F689.35309483651758
ssg875
(dp1273
g567
F608.19750308522941
ssg877
g1035
sg879
(dp1274
g567
F608.1973964779869
ssg881
g1098
sg883
(dp1275
g567
F527.02734739679454
ssg992
(dp1276
g567
F769.14902001998746
ssg398
(dp1277
g567
F579.14734387425631
ssg888
(dp1278
g567
F463.83852611343178
ssg915
g743
sg1230
g874
sg890
g902
s(g268
g269
tp1279
g1224
sg894
(dp1280
g567
F0
sssg288
(dp1281
g238
g1158
s(g46
g47
tp1282
g648
sg645
g1156
sg649
(dp1283
g567
F656.00851834183243
sssg290
(dp1284
g220
g1087
sg430
(dp1285
g567
F501.37179131906493
ssg422
(dp1286
g567
F247.84807135664903
ssg124
g829
sg384
(dp1287
g567
F706.57973435051656
sssg292
(dp1288
g132
g845
ssg294
(dp1289
g374
(dp1290
g567
F671.79671747673353
sssg296
(dp1291
g130
g843
ssg300
(dp1292
(g308
g309
tp1293
(dp1294
g567
F478.73057725736555
ss(g386
g387
tp1295
(dp1296
g567
F729.45739607172516
ssg116
g809
s(g320
g321
tp1297
(dp1298
g567
F370.08972933119463
ssg120
g822
s(g504
g505
tp1299
(dp1300
g567
F691.31688471536859
ss(g12
g13
tp1301
g586
s(g62
g63
tp1302
g680
sg581
g797
sg587
(dp1303
g567
F433.94538004249262
ss(g366
g367
tp1304
(dp1305
g567
F631.82730186993581
ss(g38
g39
tp1306
g634
ssg304
(dp1307
g849
g1262
sg988
g871
sg851
g957
sg853
(dp1308
g567
F748.34461183112705
ss(g188
g189
tp1309
g1023
sg875
(dp1310
g567
F688.30041782734247
ssg879
(dp1311
g567
F688.30081787761469
ss(g214
g215
tp1312
g1085
sg1271
(dp1313
g567
F706.7547062396394
ss(g464
g465
tp1314
(dp1315
g567
F427.00482930838587
ssg398
(dp1316
g567
F725.0964046871967
ssg994
(dp1317
g567
F565.00611838891598
ss(g500
g501
tp1318
(dp1319
g567
F263.6220960290733
ssg883
(dp1320
g567
F797.06680799923038
sssg306
(dp1321
g330
(dp1322
g567
F546.06549891285317
sssg310
(dp1323
g573
(dp1324
g567
F510.18137709891585
ss(g320
g321
tp1325
(dp1326
g567
F480.63043707284203
ssg120
g818
s(g62
g63
tp1327
g670
sg677
g570
sg581
g789
s(g366
g367
tp1328
(dp1329
g567
F535.33839665126845
ssg585
g1294
sg587
(dp1330
g567
F447.9840527372333
ssg589
g621
ssg314
(dp1331
g116
g805
sg675
(dp1332
g567
F208.14723700197681
sssg318
(dp1333
g885
g1124
s(g424
g425
tp1334
(dp1335
g567
F689.35309483651758
ss(g282
g283
tp1336
g1280
s(g434
g435
tp1337
(dp1338
g567
F608.19750308522941
ssg877
g1053
sg879
(dp1339
g567
F608.1973964779869
ss(g222
g223
tp1340
g1109
sg883
(dp1341
g567
F527.02734739679454
ss(g362
g363
tp1342
(dp1343
g567
F769.14902001998746
ssg398
(dp1344
g567
F579.14734387425631
ssg888
(dp1345
g567
F463.83852611343178
ssg915
g747
s(g140
g141
tp1346
g895
sg890
g921
s(g268
g269
tp1347
g1231
ssg322
(dp1348
(g488
g489
tp1349
(dp1350
g567
F666.71022503961251
ssg669
g1326
sg571
(dp1351
g567
F568.03730085461643
ssg116
g801
sg120
g820
s(g62
g63
tp1352
g673
sg677
g577
sg581
g792
sg678
(dp1353
g567
F280.43526692350434
ss(g54
g55
tp1354
g658
sg585
g1298
sg587
(dp1355
g567
F89.741239120859177
ssg589
g624
ssg326
(dp1356
(g518
g519
tp1357
(dp1358
g567
F539.94109743034051
ssg118
g814
sg1188
g1075
sg254
g1174
s(g260
g261
tp1359
g1187
sg1027
(dp1360
g567
F513.12626892416699
sssg330
(dp1361
g306
g1322
s(g404
g405
tp1362
(dp1363
g567
F338.50218085129814
ss(g74
g75
tp1364
g701
s(g256
g257
tp1365
g1178
ssg334
(dp1366
g450
(dp1367
g567
F564.90297664997308
ssg1057
(dp1368
g567
F566.73600506422827
ss(g196
g197
tp1369
g1060
sg1061
g980
ssg336
(dp1370
g176
g1005
ssg338
(dp1371
g534
(dp1372
g567
F287.73695468850281
ssg32
g615
ssg342
(dp1373
(g88
g89
tp1374
g719
sg360
(dp1375
g567
F543.86149089243156
ssg354
(dp1376
g567
F448.03164634111391
sssg344
(dp1377
g498
(dp1378
g567
F524.99206553745421
ssg552
(dp1379
g567
F561.29022689525823
ssg478
(dp1380
g567
F302.71761192626508
ssg72
g687
ssg346
(dp1381
g164
g975
ssg350
(dp1382
(g126
g127
tp1383
g838
s(g428
g429
tp1384
(dp1385
g567
F639.99815060648746
ss(g382
g383
tp1386
(dp1387
g567
F338.78751298696318
ssg536
(dp1388
g567
F293.36947121799801
sssg354
(dp1389
(g88
g89
tp1390
g721
s(g428
g429
tp1391
(dp1392
g567
F777.06639510038417
ss(g122
g123
tp1393
g833
sg718
g1376
ssg358
(dp1394
(g274
g275
tp1395
g1245
s(g424
g425
tp1396
(dp1397
g567
F185.71592546984991
ss(g282
g283
tp1398
g1274
s(g140
g141
tp1399
g880
s(g302
g303
tp1400
g1311
s(g316
g317
tp1401
g1339
s(g192
g193
tp1402
g1038
s(g464
g465
tp1403
(dp1404
g567
F415.94959968393312
ss(g434
g435
tp1405
(dp1406
g567
F0.001062293088679396
ss(g394
g395
tp1407
(dp1408
g567
F119.67417172899653
ss(g154
g155
tp1409
g938
s(g500
g501
tp1410
(dp1411
g567
F492.25774013512108
ss(g222
g223
tp1412
g1102
s(g230
g231
tp1413
g1132
sg915
g749
s(g362
g363
tp1414
(dp1415
g567
F487.33225312976685
ss(g390
g391
tp1416
(dp1417
g567
F764.45860477487372
ss(g144
g145
tp1418
g906
sg398
(dp1419
g567
F41.146287920439519
ss(g540
g541
tp1420
(dp1421
g567
F316.99674988556416
ss(g408
g409
tp1422
(dp1423
g567
F381.38595515024986
ssg740
g1200
s(g268
g269
tp1424
g1226
ssg360
(dp1425
g90
g717
sg342
g1375
ssg364
(dp1426
g849
g1253
sg851
g948
sg740
g1210
s(g282
g283
tp1427
g1276
sg853
(dp1428
g567
F742.76725945625981
ssg915
g759
sg894
g1343
sg879
g1415
s(g500
g501
tp1429
(dp1430
g567
F694.64644445960948
ss(g424
g425
tp1431
(dp1432
g567
F318.7698533027957
ssg990
(dp1433
g567
F288.42468158944462
ssg883
(dp1434
g567
F412.42239142314662
ssg885
g1137
sg398
(dp1435
g567
F459.07183429494239
ssg994
(dp1436
g567
F392.73704842155286
ss(g464
g465
tp1437
(dp1438
g567
F533.69432454916989
ss(g172
g173
tp1439
g993
sg875
(dp1440
g567
F487.33331243054931
ssg890
g910
s(g544
g545
tp1441
(dp1442
g567
F752.39568565733396
sssg368
(dp1443
g1349
(dp1444
g567
F449.13722739015606
ssg669
g1329
sg571
(dp1445
g567
F304.28660657668888
ss(g320
g321
tp1446
g1353
sg120
g821
s(g62
g63
tp1447
g679
sg677
g584
sg587
(dp1448
g567
F199.684000023718
ssg1354
g662
sg585
g1305
sg589
g633
sg272
g1236
ssg372
(dp1449
g988
g866
sg851
g952
sg853
(dp1450
g567
F213.90948989081014
ssg688
(dp1451
g567
F630.10104884787847
ss(g500
g501
tp1452
(dp1453
g567
F788.89820288725741
ss(g464
g465
tp1454
(dp1455
g567
F744.19820355954744
ssg740
g1217
sg452
(dp1456
g567
F317.00051904488856
ss(g172
g173
tp1457
g999
s(g70
g71
tp1458
g693
s(g544
g545
tp1459
(dp1460
g567
F544.40585492076673
sssg374
(dp1461
g294
g1290
sg148
g923
ssg376
(dp1462
g458
(dp1463
g567
F361.4845517318812
ssg44
g641
sg528
(dp1464
g567
F441.8150009257522
ss(g390
g391
tp1465
(dp1466
g567
F724.10840520824684
ss(g544
g545
tp1467
(dp1468
g567
F560.89916743248568
sssg380
(dp1469
g160
g969
s(g246
g247
tp1470
g1170
ssg384
(dp1471
(g428
g429
tp1472
(dp1473
g567
F333.8539138203609
ssg536
(dp1474
g567
F514.55463229648558
ssg290
g1287
sg1393
g828
s(g126
g127
tp1475
g840
sg837
g1387
sg834
(dp1476
g567
F707.43231803609535
sssg388
(dp1477
g581
g790
s(g308
g309
tp1478
g1324
s(g12
g13
tp1479
g574
sg585
g1296
ssg392
(dp1480
g885
g1139
sg851
g942
sg740
g1206
sg915
g755
sg875
(dp1481
g567
F764.45966539181859
ssg879
g1417
s(g424
g425
tp1482
(dp1483
g567
F605.36897245739738
ssg376
g1466
s(g362
g363
tp1484
g1433
sg398
(dp1485
g567
F732.15896291127342
ss(g540
g541
tp1486
(dp1487
g567
F670.81035300199164
ss(g172
g173
tp1488
g991
s(g526
g527
tp1489
(dp1490
g567
F521.63102575083565
ssg883
(dp1491
g567
F674.19039155851351
ss(g544
g545
tp1492
(dp1493
g567
F671.25538803328823
sssg396
(dp1494
(g274
g275
tp1495
g1251
s(g424
g425
tp1496
(dp1497
g567
F173.84863345254394
ss(g282
g283
tp1498
g1275
s(g140
g141
tp1499
g884
s(g302
g303
tp1500
g1320
s(g316
g317
tp1501
g1341
sg877
g1042
s(g464
g465
tp1502
(dp1503
g567
F483.03136560872309
ss(g434
g435
tp1504
(dp1505
g567
F119.67497063581882
ss(g144
g145
tp1506
g917
sg851
g944
s(g500
g501
tp1507
(dp1508
g567
F584.17189648595479
ssg879
g1408
s(g222
g223
tp1509
g1103
sg885
g1130
sg915
g757
s(g362
g363
tp1510
g1434
s(g390
g391
tp1511
g1491
sg398
(dp1512
g567
F78.532475696398834
ss(g540
g541
tp1513
(dp1514
g567
F356.03395878652145
ssg888
(dp1515
g567
F405.09345990382542
ssg740
g1208
s(g268
g269
tp1516
g1227
ssg398
(dp1517
g276
g1254
sg426
(dp1518
g567
F172.1202805599309
ssg284
g1277
sg436
(dp1519
g567
F41.147095245919594
ssg304
g1316
sg318
g1344
sg194
g1045
sg466
(dp1520
g567
F436.06432018804219
ssg142
g887
sg396
g1512
sg156
g946
sg502
(dp1521
g567
F522.26774188443005
ssg358
g1419
sg224
g1099
sg364
g1435
sg100
g760
sg232
g1141
sg392
g1485
sg146
g911
sg542
(dp1522
g567
F325.54507848272829
ssg410
(dp1523
g567
F386.02841465798082
ssg266
g1211
sg270
g1228
ssg402
(dp1524
g731
(dp1525
g567
F305.64244572938264
ssg728
g1267
sg474
(dp1526
g567
F633.07656004049943
ss(g106
g107
tp1527
g780
s(g94
g95
tp1528
g727
ssg406
(dp1529
g700
g1363
sg432
(dp1530
g567
F490.26523188808864
ss(g256
g257
tp1531
g1180
sg1182
g703
ssg410
(dp1532
(g274
g275
tp1533
g1257
s(g424
g425
tp1534
(dp1535
g567
F557.9361486455623
ss(g282
g283
tp1536
g1278
s(g434
g435
tp1537
(dp1538
g567
F381.38521779875219
ssg879
g1423
sg877
g1047
s(g500
g501
tp1539
(dp1540
g567
F797.3222541235474
ss(g222
g223
tp1541
g1106
s(g464
g465
tp1542
(dp1543
g567
F769.74378942943338
ss(g394
g395
tp1544
g1515
sg885
g1145
sg398
g1523
s(g540
g541
tp1545
(dp1546
g567
F694.71288814268814
ssg915
g766
s(g140
g141
tp1547
g889
s(g144
g145
tp1548
g914
s(g268
g269
tp1549
g1229
s(g316
g317
tp1550
g1345
ssg412
(dp1551
g110
g786
sg202
g1064
ssg414
(dp1552
g516
(dp1553
g567
F4.2254847353179859
sssg418
(dp1554
g468
(dp1555
g567
F550.88220768296969
ss(g66
g67
tp1556
g685
sg102
g776
ssg422
(dp1557
g290
g1286
sg830
g1091
s(g428
g429
tp1558
(dp1559
g567
F616.51655078720262
ss(g382
g383
tp1560
g1476
s(g122
g123
tp1561
g835
ssg426
(dp1562
g849
g1260
s(g282
g283
tp1563
g1272
sg875
(dp1564
g567
F185.71689552230305
ss(g302
g303
tp1565
g1313
sg894
g1335
sg877
g1033
s(g464
g465
tp1566
(dp1567
g567
F335.93949943588052
ssg883
g1497
sg851
g932
sg853
(dp1568
g567
F768.37106642833805
ssg879
g1397
s(g500
g501
tp1569
(dp1570
g567
F464.87121861206708
ssg881
g1096
sg885
g1119
sg915
g774
sg992
g1432
sg990
g1483
sg890
g900
sg398
g1518
sg994
(dp1571
g567
F192.64430647871225
ssg888
g1535
sg740
g1204
ssg430
(dp1572
g839
g1473
sg290
g1285
sg830
g1089
sg1393
g826
sg837
g1385
s(g352
g353
tp1573
g1392
sg834
g1559
ssg432
(dp1574
g152
g925
sg406
g1530
sg76
g704
sg258
g1181
ssg436
(dp1575
g849
g1244
s(g424
g425
tp1576
g1564
s(g282
g283
tp1577
g1273
s(g140
g141
tp1578
g876
s(g302
g303
tp1579
g1310
sg894
g1338
sg877
g1037
s(g464
g465
tp1580
(dp1581
g567
F415.94985149725977
ssg883
g1505
sg851
g937
s(g500
g501
tp1582
(dp1583
g567
F492.25765340256578
ssg879
g1406
sg881
g1101
sg885
g1128
sg915
g770
s(g362
g363
tp1584
g1440
s(g390
g391
tp1585
g1481
sg890
g904
sg398
g1519
s(g540
g541
tp1586
(dp1587
g567
F316.99731532099122
ssg888
g1538
sg740
g1198
s(g268
g269
tp1588
g1225
ssg438
(dp1589
g448
(dp1590
g567
F629.24201989539574
ssg10
g566
ssg442
(dp1591
g450
(dp1592
g567
F2.8384914545617015
ss(g332
g333
tp1593
g1368
s(g196
g197
tp1594
g1058
sg1061
g978
ssg444
(dp1595
g486
(dp1596
g567
F558.77089786075771
ssg530
(dp1597
g567
F573.90117369423467
sssg446
(dp1598
(g58
g59
tp1599
g667
ssg448
(dp1600
g438
g1590
ssg450
(dp1601
g442
g1592
sg334
g1367
sg198
g1056
sg168
g983
ssg452
(dp1602
g138
g867
s(g154
g155
tp1603
g953
sg494
(dp1604
g567
F489.20464870541161
ss(g496
g497
tp1605
(dp1606
g567
F329.06747514830215
ss(g214
g215
tp1607
g1083
sg372
g1456
sg174
g1000
s(g70
g71
tp1608
g694
s(g476
g477
tp1609
(dp1610
g567
F506.8328204938004
sssg454
(dp1611
g208
g1070
ssg458
(dp1612
(g42
g43
tp1613
g638
s(g526
g527
tp1614
(dp1615
g567
F395.99638997602437
ssg376
g1463
ssg462
(dp1616
(g488
g489
tp1617
(dp1618
g567
F201.54446836927073
ss(g320
g321
tp1619
g1351
sg120
g819
s(g12
g13
tp1620
g572
s(g508
g509
tp1621
(dp1622
g567
F498.05672254450997
ssg56
g663
s(g366
g367
tp1623
g1445
sg272
g1238
ssg466
(dp1624
g849
g1250
sg988
g859
sg851
g950
sg915
g764
sg853
(dp1625
g567
F533.19746340277766
ssg875
g1581
sg879
g1404
s(g500
g501
tp1626
(dp1627
g567
F163.44491179368174
ssg1271
g1567
sg740
g1215
sg992
g1438
sg398
g1520
sg994
(dp1628
g567
F152.73464130189345
ssg998
g1455
sg888
g1543
sg885
g1126
s(g172
g173
tp1629
g997
sg883
g1503
s(g302
g303
tp1630
g1315
ssg468
(dp1631
g68
g683
sg418
g1555
ssg472
(dp1632
(g400
g401
tp1633
g1525
s(g278
g279
tp1634
g1265
sg474
(dp1635
g567
F327.45075408796532
ss(g106
g107
tp1636
g784
s(g94
g95
tp1637
g732
ssg474
(dp1638
g402
g1526
sg280
g1268
sg472
g1635
sg96
g730
sg108
g782
ssg478
(dp1639
g452
g1610
sg688
(dp1640
g567
F230.88059511594236
ssg344
g1380
sg690
(dp1641
g567
F508.80249611745444
ssg1458
g696
ssg482
(dp1642
g158
g964
s(g512
g513
tp1643
(dp1644
g567
F437.28727756453571
ss(g180
g181
tp1645
g1012
sg709
g1018
ssg484
(dp1646
(g22
g23
tp1647
g597
ssg486
(dp1648
g444
g1596
ssg490
(dp1649
g571
g1618
s(g320
g321
tp1650
g1350
sg120
g817
sg587
(dp1651
g567
F615.89540300703072
ssg1354
g660
s(g366
g367
tp1652
g1444
sg272
g1234
ssg494
(dp1653
g849
g1242
s(g136
g137
tp1654
g854
sg851
g935
s(g214
g215
tp1655
g1079
s(g500
g501
tp1656
(dp1657
g567
F592.06880223432518
ss(g424
g425
tp1658
g1568
s(g464
g465
tp1659
g1625
sg740
g1196
s(g362
g363
tp1660
g1428
s(g540
g541
tp1661
(dp1662
g567
F597.27171892425827
ss(g370
g371
tp1663
g1450
sg452
g1604
sg915
g745
s(g172
g173
tp1664
g989
s(g544
g545
tp1665
(dp1666
g567
F555.16837002433635
ss(g302
g303
tp1667
g1308
ssg498
(dp1668
(g136
g137
tp1669
g855
sg344
g1378
sg690
(dp1670
g567
F504.35435901231904
ss(g370
g371
tp1671
g1451
sg452
g1606
s(g70
g71
tp1672
g689
s(g476
g477
tp1673
g1640
ssg502
(dp1674
g849
g1247
sg988
g864
sg851
g940
sg853
g1657
sg875
g1583
sg879
g1411
sg1312
g1081
sg1271
g1570
sg1314
g1627
sg740
g1202
sg992
g1430
sg398
g1521
sg994
(dp1675
g567
F304.91515509016216
ssg998
g1453
sg888
g1540
sg885
g1134
sg915
g751
sg883
g1508
s(g302
g303
tp1676
g1319
ssg506
(dp1677
g116
g802
sg585
g1300
sg589
g627
s(g62
g63
tp1678
g676
s(g312
g313
tp1679
g1332
ssg510
(dp1680
(g488
g489
tp1681
g1651
s(g308
g309
tp1682
g1330
sg571
g1622
sg116
g807
s(g320
g321
tp1683
g1355
sg120
g823
s(g62
g63
tp1684
g681
s(g12
g13
tp1685
g588
s(g112
g113
tp1686
g795
s(g366
g367
tp1687
g1448
s(g298
g299
tp1688
g1303
s(g38
g39
tp1689
g635
ssg514
(dp1690
g158
g963
sg1011
g1644
sg709
g1016
s(g180
g181
tp1691
g1010
ssg516
(dp1692
g414
g1553
ssg520
(dp1693
g244
g1167
sg1309
g1026
sg1173
g1358
s(g252
g253
tp1694
g1176
sg1359
g1185
sg1027
(dp1695
g567
F419.87963343479259
sssg524
(dp1696
(g50
g51
tp1697
g655
sg178
g1007
ssg528
(dp1698
(g456
g457
tp1699
g1615
sg1613
g640
sg376
g1464
sg990
g1490
ssg530
(dp1700
g444
g1597
ssg534
(dp1701
g338
g1372
sg618
g614
ssg536
(dp1702
g128
g841
sg350
g1388
s(g382
g383
tp1703
g1474
ssg538
(dp1704
g28
g610
ssg542
(dp1705
g849
g1256
sg988
g862
sg851
g961
sg740
g1213
sg915
g762
sg853
g1662
sg875
g1587
sg879
g1421
s(g500
g501
tp1706
g1675
s(g424
g425
tp1707
g1571
sg990
g1487
sg883
g1514
sg885
g1143
sg398
g1522
s(g362
g363
tp1708
g1436
s(g464
g465
tp1709
g1628
sg888
g1546
s(g172
g173
tp1710
g995
sg890
g913
s(g302
g303
tp1711
g1317
ssg546
(dp1712
g851
g959
sg853
g1666
sg990
g1493
sg740
g1221
sg992
g1442
sg998
g1460
sg1629
g1003
sg376
g1468
ssg548
(dp1713
(g46
g47
tp1714
g644
sg104
g778
ssg552
(dp1715
(g496
g497
tp1716
g1670
sg344
g1379
s(g70
g71
tp1717
g691
s(g476
g477
tp1718
g1641
ssg556
(dp1719
g238
g1159
s(g46
g47
tp1720
g650
s(g234
g235
tp1721
g1154
s(g286
g287
tp1722
g1283
ssg560
(dp1723
g244
g1164
s(g518
g519
tp1724
g1695
s(g188
g189
tp1725
g1028
sg118
g815
s(g324
g325
tp1726
g1360
sg1188
g1077
s(g260
g261
tp1727
g1189
sssS'adj'
p1728
g564
sbs.