(dp1
(S'Prague'
p2
S'Czech Republic'
p3
I2012
I2
I1
tp4
F29.75
s(S'Houston'
p5
VTX
p6
I2012
I8
I1
tp7
F110.75
s(S'Saint Petersburg'
p8
S'Russia'
p9
I2012
I12
I1
tp10
F33.25
s(S'Buenos Aires'
p11
S'Argentina'
p12
I2012
I11
I1
tp13
F85.75
s(S'Ho Chi Minh City'
p14
S'Vietnam'
p15
I2012
I11
I1
tp16
F101
s(S'Mogadishu'
p17
S'Somalia'
p18
I2012
I3
I1
tp19
I-1
s(S'Curitiba'
p20
S'Brazil'
p21
I2012
I2
I1
tp22
I-1
s(S'San Juan'
p23
S'Puerto Rico'
p24
I2012
I2
I1
tp25
F96.5
s(S'Kumasi'
p26
S'Ghana'
p27
I2012
I11
I1
tp28
I-1
s(S'Shenzhen'
p29
S'China'
p30
I2012
I7
I1
tp31
F105.75
s(S'Stockholm'
p32
S'Sweden'
p33
I2012
I3
I1
tp34
F37
s(S'F\xc3\xa8s'
p35
S'Morocco'
p36
I2012
I3
I1
tp37
I-1
s(S'Tripoli'
p38
S'Libya'
p39
I2012
I11
I1
tp40
F90.75
s(S'Baltimore'
p41
VUS
p42
I2012
I12
I1
tp43
I-1
s(g41
S'United States'
p44
I2012
I9
I1
tp45
I-1
s(S'Chongqing'
p46
S'China'
p47
I2012
I12
I1
tp48
F64
s(S'Guangzhou'
p49
S'China'
p50
I2012
I4
I1
tp51
F84.25
s(S'Kinshasa'
p52
S'Democratic Republic of the Congo'
p53
I2012
I6
I1
tp54
F97
s(S'Denver'
p55
S'United States'
p56
I2012
I9
I1
tp57
I-1
s(S'Taipei'
p58
S'Taiwan'
p59
I2012
I8
I1
tp60
F109
s(S'Douala'
p61
S'Cameroon'
p62
I2012
I3
I1
tp63
F104.75
s(S'Turin'
p64
S'Italy'
p65
I2012
I3
I1
tp66
I-1
s(S'Port Harcourt'
p67
S'Nigeria'
p68
I2012
I11
I1
tp69
I-1
s(S'Dakar'
p70
S'Senegal'
p71
I2012
I8
I1
tp72
F102.75
s(S'Bangalore'
p73
S'India'
p74
I2012
I12
I1
tp75
F89.75
s(S'Sofia'
p76
S'Bulgaria'
p77
I2012
I7
I1
tp78
F88.5
s(S'Kolkata'
p79
S'India'
p80
I2012
I10
I1
tp81
F107.5
s(g26
g27
I2012
I4
I1
tp82
I-1
s(S'Dar es Salaam'
p83
S'Tanzania'
p84
I2012
I9
I1
tp85
F96.75
s(S'Ndjamena'
p86
S'Chad'
p87
I2012
I8
I1
tp88
F102.5
s(g49
g50
I2012
I11
I1
tp89
F91
s(S'Karachi'
p90
S'Pakistan'
p91
I2012
I10
I1
tp92
F108
s(S'Mbuji-Mayi'
p93
S'Democratic Republic of the Congo'
p94
I2012
I9
I1
tp95
I-1
s(S'Benin'
p96
S'Nigeria'
p97
I2012
I8
I1
tp98
I-1
s(S'Metro Manila'
p99
S'Philippines'
p100
I2012
I9
I1
tp101
F101.5
s(S'Delhi'
p102
S'India'
p103
I2012
I6
I1
tp104
I-1
s(S'Lahore'
p105
S'Pakistan'
p106
I2012
I9
I1
tp107
F106.5
s(S'Ufa'
p108
S'Russia'
p109
I2012
I9
I1
tp110
I-1
s(S'Berlin'
p111
S'Germany'
p112
I2012
I6
I1
tp113
I-1
s(S'San Francisco'
p114
S'United States'
p115
I2012
I6
I1
tp116
I-1
s(g64
g65
I2012
I9
I1
tp117
I-1
s(g5
S'United States'
p118
I2012
I8
I1
tp119
I-1
s(S'Boston'
p120
VMA
p121
I2012
I8
I1
tp122
F93.25
s(S'Porto Alegre'
p123
S'Brazil'
p124
I2012
I6
I1
tp125
F68.75
s(S'Lima'
p126
S'Peru'
p127
I2012
I1
I1
tp128
F89.5
s(g96
g97
I2012
I5
I1
tp129
I-1
s(S'Brussels'
p130
S'Belgium'
p131
I2012
I3
I1
tp132
F53.5
s(S'Atlanta'
p133
VGA
p134
I2012
I3
I1
tp135
F64.75
s(g108
g109
I2012
I3
I1
tp136
I-1
s(S'Porto'
p137
S'Portugal'
p138
I2012
I5
I1
tp139
I-1
s(S'Stuttgart'
p140
S'Germany'
p141
I2012
I2
I1
tp142
I-1
s(S'Kampala'
p143
S'Uganda'
p144
I2012
I1
I1
tp145
F90.5
s(S'Kano'
p146
S'Nigeria'
p147
I2012
I10
I1
tp148
I-1
s(S'Riga'
p149
S'Latvia'
p150
I2012
I12
I1
tp151
F41
s(S'Belgrade'
p152
S'Serbia'
p153
I2012
I10
I1
tp154
I-1
s(S'Samara'
p155
S'Russia'
p156
I2012
I5
I1
tp157
F67.25
s(S'Antananarivo'
p158
S'Madagascar'
p159
I2012
I11
I1
tp160
F90
s(S'Copenhagen'
p161
S'Denmark'
p162
I2012
I12
I1
tp163
F45.25
s(S'Tampa Bay'
p164
VUS
p165
I2012
I3
I1
tp166
I-1
s(S'Valencia'
p167
S'Spain'
p168
I2012
I2
I1
tp169
F61
s(S'Saratov'
p170
S'Russia'
p171
I2012
I7
I1
tp172
F85.5
s(S'Lagos'
p173
S'Nigeria'
p174
I2012
I10
I1
tp175
I-1
s(S'United States'
p176
S'Mexico'
p177
I2012
I4
I1
tp178
I-1
s(g114
VCA
p179
I2012
I12
I1
tp180
F68.25
s(S'Rostov-on-Don'
p181
S'Russia'
p182
I2012
I6
I1
tp183
I-1
s(S'Harare'
p184
S'Zimbabwe'
p185
I2012
I7
I1
tp186
F70.5
s(S'Vereeniging'
p187
S'South Africa'
p188
I2012
I1
I1
tp189
I-1
s(S'Mumbai'
p190
S'India'
p191
I2012
I8
I1
tp192
F101
s(S'Kaduna'
p193
S'Nigeria'
p194
I2012
I7
I1
tp195
I-1
s(S'Caracas'
p196
S'Venezuela'
p197
I2012
I2
I1
tp198
I-1
s(g2
g3
I2012
I12
I1
tp199
F40.25
s(S'Khartoum'
p200
S'Sudan'
p201
I2012
I1
I1
tp202
I-1
s(S'Rio de Janeiro'
p203
S'Brazil'
p204
I2012
I9
I1
tp205
F88.75
s(g11
g12
I2012
I9
I1
tp206
F72.5
s(g17
g18
I2012
I1
I1
tp207
I-1
s(S'Yerevan'
p208
S'Armenia'
p209
I2012
I9
I1
tp210
F95
s(g20
g21
I2012
I12
I1
tp211
I-1
s(g23
g24
I2012
I4
I1
tp212
F100.25
s(g29
g30
I2012
I5
I1
tp213
F98
s(S'Ibadan'
p214
S'Nigeria'
p215
I2012
I6
I1
tp216
I-1
s(g46
g47
I2012
I10
I1
tp217
F88.5
s(g52
g53
I2012
I4
I1
tp218
F101.25
s(g58
g59
I2012
I10
I1
tp219
F97.25
s(g61
g62
I2012
I1
I1
tp220
F103
s(g67
g68
I2012
I9
I1
tp221
I-1
s(S'Chicago'
p222
VIL
p223
I2012
I2
I1
tp224
F36.25
s(S'Ruhr'
p225
S'Germany'
p226
I2012
I1
I1
tp227
I-1
s(S'Jakarta'
p228
S'Indonesia'
p229
I2012
I2
I1
tp230
F99.75
s(g26
g27
I2012
I6
I1
tp231
I-1
s(g83
g84
I2012
I11
I1
tp232
F100.75
s(g49
g50
I2012
I9
I1
tp233
F106
s(g90
g91
I2012
I8
I1
tp234
F107.75
s(g93
g94
I2012
I7
I1
tp235
I-1
s(S'Johannesburg'
p236
S'South Africa'
p237
I2012
I12
I1
tp238
F82.5
s(S'Bucharest'
p239
S'Romania'
p240
I2012
I3
I1
tp241
F45.25
s(g102
g103
I2012
I4
I1
tp242
I-1
s(S'Salvador'
p243
S'Brazil'
p244
I2012
I7
I1
tp245
F95.25
s(g105
g106
I2012
I11
I1
tp246
F91
s(S'Guayaquil'
p247
S'Ecuador'
p248
I2012
I7
I1
tp249
F97.5
s(S'Tbilisi'
p250
S'Georgia'
p251
I2012
I9
I1
tp252
I-1
s(S'Antwerp'
p253
S'Belgium'
p254
I2012
I11
I1
tp255
F61.5
s(g111
g112
I2012
I4
I1
tp256
I-1
s(g32
g33
I2012
I2
I1
tp257
F31.25
s(g5
g118
I2012
I10
I1
tp258
I-1
s(g120
g121
I2012
I10
I1
tp259
F77.25
s(g126
g127
I2012
I3
I1
tp260
F92.25
s(g130
g131
I2012
I1
I1
tp261
F45
s(g108
g109
I2012
I1
I1
tp262
I-1
s(g90
g91
I2012
I7
I1
tp263
F110.5
s(g140
g141
I2012
I4
I1
tp264
I-1
s(g143
g144
I2012
I3
I1
tp265
I-1
s(g146
g147
I2012
I8
I1
tp266
F99.75
s(g152
g153
I2012
I8
I1
tp267
I-1
s(g155
g156
I2012
I7
I1
tp268
F82
s(g158
g159
I2012
I5
I1
tp269
F85.5
s(g164
g165
I2012
I5
I1
tp270
I-1
s(S'Donetsk'
p271
S'Ukraine'
p272
I2012
I6
I1
tp273
F83
s(S'Frankfurt'
p274
S'Germany'
p275
I2012
I5
I1
tp276
F72.75
s(g225
g226
I2012
I7
I1
tp277
I-1
s(S'Montreal'
p278
S'Canada'
p279
I2012
I6
I1
tp280
F76.75
s(g170
g171
I2012
I5
I1
tp281
F72.25
s(S'Freetown'
p282
S'Sierra Leone'
p283
I2012
I8
I1
tp284
I-1
s(g176
g177
I2012
I6
I1
tp285
I-1
s(g181
g182
I2012
I8
I1
tp286
I-1
s(g108
g109
I2012
I6
I1
tp287
I-1
s(g187
g188
I2012
I3
I1
tp288
I-1
s(S'Toronto'
p289
S'Canada'
p290
I2012
I8
I1
tp291
F91
s(g190
g191
I2012
I6
I1
tp292
F111.25
s(g193
g194
I2012
I5
I1
tp293
I-1
s(g161
g162
I2012
I1
I1
tp294
F40
s(S'The Hague'
p295
S'Netherlands'
p296
I2012
I9
I1
tp297
F75
s(g133
g134
I2012
I12
I1
tp298
F52.75
s(g200
g201
I2012
I3
I1
tp299
F94.75
s(g5
g6
I2012
I12
I1
tp300
F68.75
s(g170
g171
I2012
I10
I1
tp301
F61.5
s(g8
g9
I2012
I8
I1
tp302
F81.5
s(g11
g12
I2012
I7
I1
tp303
F68.75
s(g208
g209
I2012
I11
I1
tp304
F59.75
s(g23
g24
I2012
I6
I1
tp305
F103
s(g29
g30
I2012
I3
I1
tp306
F84.5
s(g214
g215
I2012
I4
I1
tp307
I-1
s(g46
g47
I2012
I8
I1
tp308
F103.5
s(S'St. Louis'
p309
VUS
p310
I2012
I11
I1
tp311
I-1
s(g52
g53
I2012
I2
I1
tp312
F102.75
s(S'Maiduguri'
p313
S'Nigeria'
p314
I2012
I10
I1
tp315
I-1
s(S'Brazzaville'
p316
S'Republic of the Congo'
p317
I2012
I4
I1
tp318
F101.5
s(S'Port Elizabeth'
p319
S'South Africa'
p320
I2012
I11
I1
tp321
F78.25
s(g243
g244
I2012
I11
I1
tp322
F99.5
s(g32
g33
I2012
I6
I1
tp323
F70.5
s(g70
g71
I2012
I12
I1
tp324
F96.75
s(g228
g229
I2012
I12
I1
tp325
F105
s(g32
g33
I2012
I11
I1
tp326
F52.75
s(g133
g134
I2012
I8
I1
tp327
F102.5
s(g214
g215
I2012
I11
I1
tp328
I-1
s(g5
g6
I2012
I9
I1
tp329
F105.25
s(S'Mexico City'
p330
S'Mexico'
p331
I2012
I9
I1
tp332
F83.25
s(g93
g94
I2012
I5
I1
tp333
I-1
s(g236
g237
I2012
I10
I1
tp334
F82
s(g239
g240
I2012
I1
I1
tp335
F38.25
s(g102
g103
I2012
I10
I1
tp336
I-1
s(S'Shanghai'
p337
S'China'
p338
I2012
I3
I1
tp339
F57.5
s(g73
g74
I2012
I3
I1
tp340
F98.25
s(g250
g251
I2012
I11
I1
tp341
I-1
s(g253
g254
I2012
I9
I1
tp342
F77
s(g111
g112
I2012
I10
I1
tp343
I-1
s(S'Cali'
p344
S'Colombia'
p345
I2012
I10
I1
tp346
F95.75
s(g5
g118
I2012
I4
I1
tp347
I-1
s(g120
g121
I2012
I12
I1
tp348
F53.75
s(g123
g124
I2012
I2
I1
tp349
F98
s(g126
g127
I2012
I5
I1
tp350
F85.75
s(S'New York City'
p351
S'United States'
p352
I2012
I12
I1
tp353
I-1
s(g90
g91
I2012
I5
I1
tp354
F112.25
s(g140
g141
I2012
I6
I1
tp355
I-1
s(g143
g144
I2012
I5
I1
tp356
I-1
s(g146
g147
I2012
I6
I1
tp357
I-1
s(g152
g153
I2012
I6
I1
tp358
I-1
s(g155
g156
I2012
I1
I1
tp359
F18.75
s(g158
g159
I2012
I7
I1
tp360
F72.5
s(g164
g165
I2012
I7
I1
tp361
I-1
s(g253
g254
I2012
I6
I1
tp362
F76
s(g167
g168
I2012
I6
I1
tp363
F88
s(g274
g275
I2012
I7
I1
tp364
F88
s(g278
g279
I2012
I4
I1
tp365
F51
s(g282
g283
I2012
I10
I1
tp366
I-1
s(g309
S'United States'
p367
I2012
I9
I1
tp368
I-1
s(g176
g177
I2012
I8
I1
tp369
I-1
s(g181
g182
I2012
I10
I1
tp370
I-1
s(S'Minneapolis'
p371
VMN
p372
I2012
I10
I1
tp373
F65.25
s(S'Baku'
p374
S'Azerbaijan'
p375
I2012
I2
I1
tp376
F46.5
s(g289
g290
I2012
I10
I1
tp377
F66.75
s(g190
g191
I2012
I4
I1
tp378
F103.5
s(g79
g80
I2012
I9
I1
tp379
F107.5
s(g203
g204
I2012
I12
I1
tp380
F98.25
s(g193
g194
I2012
I11
I1
tp381
I-1
s(g161
g162
I2012
I3
I1
tp382
F47.75
s(S'Seoul'
p383
S'South Korea'
p384
I2012
I3
I1
tp385
F48
s(S'Volgograd'
p386
S'Russia'
p387
I2012
I10
I1
tp388
F64.75
s(g2
g3
I2012
I8
I1
tp389
F84
s(g200
g201
I2012
I5
I1
tp390
F111.75
s(g5
g6
I2012
I2
I1
tp391
F68
s(S'Beijing'
p392
S'China'
p393
I2012
I3
I1
tp394
F43.25
s(S'Hamburg'
p395
S'Germany'
p396
I2012
I9
I1
tp397
F76.5
s(g11
g12
I2012
I5
I1
tp398
F75.75
s(S'Wuhan'
p399
S'China'
p400
I2012
I9
I1
tp401
F100.75
s(g20
g21
I2012
I8
I1
tp402
I-1
s(g23
g24
I2012
I8
I1
tp403
F105
s(g29
g30
I2012
I1
I1
tp404
F73.75
s(g41
g42
I2012
I2
I1
tp405
I-1
s(g46
g47
I2012
I6
I1
tp406
F88.5
s(S'Bogot\xc3\xa1'
p407
S'Colombia'
p408
I2012
I5
I1
tp409
I-1
s(g309
g310
I2012
I5
I1
tp410
I-1
s(g120
S'United States'
p411
I2012
I7
I1
tp412
I-1
s(g55
g56
I2012
I3
I1
tp413
I-1
s(g319
g320
I2012
I9
I1
tp414
F70.75
s(g133
S'United States'
p415
I2012
I11
I1
tp416
I-1
s(g243
g244
I2012
I9
I1
tp417
F95.25
s(g32
g33
I2012
I4
I1
tp418
F48.5
s(g8
g9
I2012
I5
I1
tp419
F61.25
s(g70
g71
I2012
I2
I1
tp420
F91.25
s(g26
g27
I2012
I2
I1
tp421
I-1
s(g38
g39
I2012
I2
I1
tp422
F70.25
s(g313
g314
I2012
I12
I1
tp423
I-1
s(g330
g331
I2012
I11
I1
tp424
F75.25
s(g93
g94
I2012
I3
I1
tp425
I-1
s(g236
g237
I2012
I8
I1
tp426
F64
s(g99
g100
I2012
I3
I1
tp427
F101.25
s(g239
g240
I2012
I7
I1
tp428
F91.5
s(g102
g103
I2012
I8
I1
tp429
I-1
s(g337
g338
I2012
I1
I1
tp430
F46
s(g319
g320
I2012
I6
I1
tp431
F72.75
s(g73
g74
I2012
I1
I1
tp432
F89.5
s(g111
g112
I2012
I8
I1
tp433
I-1
s(g344
g345
I2012
I8
I1
tp434
F96.5
s(g5
g118
I2012
I6
I1
tp435
I-1
s(g126
g127
I2012
I7
I1
tp436
F81.75
s(S'Dnipropetrovsk'
p437
S'Ukraine'
p438
I2012
I8
I1
tp439
I-1
s(g90
g91
I2012
I3
I1
tp440
F96.5
s(S'Hyderabad'
p441
S'India'
p442
I2012
I8
I1
tp443
F100
s(g96
g97
I2012
I1
I1
tp444
I-1
s(g140
g141
I2012
I8
I1
tp445
I-1
s(g143
g144
I2012
I7
I1
tp446
F89.5
s(g146
g147
I2012
I4
I1
tp447
I-1
s(g152
g153
I2012
I4
I1
tp448
I-1
s(g155
g156
I2012
I3
I1
tp449
F20.75
s(g158
g159
I2012
I1
I1
tp450
F92.25
s(g164
g165
I2012
I9
I1
tp451
I-1
s(g253
g254
I2012
I4
I1
tp452
F59.25
s(g271
g272
I2012
I2
I1
tp453
F24
s(g274
g275
I2012
I1
I1
tp454
F42.75
s(g282
g283
I2012
I4
I1
tp455
F102.25
s(g309
g367
I2012
I11
I1
tp456
I-1
s(g176
g177
I2012
I10
I1
tp457
I-1
s(g181
g182
I2012
I12
I1
tp458
I-1
s(g371
g372
I2012
I8
I1
tp459
F93
s(g374
g375
I2012
I4
I1
tp460
F62
s(g143
g144
I2012
I8
I1
tp461
F89.25
s(g133
g134
I2012
I9
I1
tp462
F96.75
s(S'Phoenix'
p463
VAZ
p464
I2012
I12
I1
tp465
F75
s(g193
g194
I2012
I9
I1
tp466
I-1
s(g161
g162
I2012
I5
I1
tp467
F64.75
s(g383
g384
I2012
I1
I1
tp468
F23.5
s(g167
g168
I2012
I11
I1
tp469
F78.75
s(g386
g387
I2012
I8
I1
tp470
F99
s(g2
g3
I2012
I10
I1
tp471
F67
s(g38
g39
I2012
I1
I1
tp472
F71.5
s(g200
g201
I2012
I7
I1
tp473
F114
s(g41
g44
I2012
I1
I1
tp474
I-1
s(g392
g393
I2012
I5
I1
tp475
F83
s(g309
g367
I2012
I4
I1
tp476
I-1
s(g11
g12
I2012
I3
I1
tp477
F91.75
s(g399
g400
I2012
I11
I1
tp478
F76.25
s(g17
g18
I2012
I11
I1
tp479
I-1
s(g20
g21
I2012
I10
I1
tp480
I-1
s(g23
g24
I2012
I10
I1
tp481
F105.25
s(g371
g372
I2012
I7
I1
tp482
F94.25
s(g41
g42
I2012
I4
I1
tp483
I-1
s(S'Nairobi'
p484
S'Kenya'
p485
I2012
I1
I1
tp486
I-1
s(g114
g179
I2012
I6
I1
tp487
F73
s(g46
g47
I2012
I4
I1
tp488
F73.5
s(g38
g39
I2012
I3
I1
tp489
F73.5
s(S'Rotterdam'
p490
S'Netherlands'
p491
I2012
I1
I1
tp492
F45.25
s(S'Recife'
p493
S'Brazil'
p494
I2012
I11
I1
tp495
F101.75
s(g41
g44
I2012
I10
I1
tp496
I-1
s(S'Washington D.C.'
p497
VDC
p498
I2012
I3
I1
tp499
I-1
s(g133
g415
I2012
I9
I1
tp500
I-1
s(g2
g3
I2012
I5
I1
tp501
F73
s(S'Douala'
p502
S'Cameroon'
p503
I2012
I11
I1
tp504
F100.5
s(g67
g68
I2012
I3
I1
tp505
I-1
s(g8
g9
I2012
I7
I1
tp506
F84.25
s(S'Manila'
p507
S'Philippines'
p508
I2012
I9
I1
tp509
F102.25
s(S'Vienna'
p510
S'Austria'
p511
I2012
I8
I1
tp512
F87
s(g20
g21
I2012
I5
I1
tp513
I-1
s(g228
g229
I2012
I8
I1
tp514
F104.25
s(S'Helsinki'
p515
S'Finland'
p516
I2012
I9
I1
tp517
F67.25
s(g26
g27
I2012
I12
I1
tp518
I-1
s(S'Cardiff'
p519
S'United Kingdom'
p520
I2012
I9
I1
tp521
I-1
s(g38
g39
I2012
I4
I1
tp522
I-1
s(S'Dallas'
p523
VTX
p524
I2012
I11
I1
tp525
F84.5
s(g49
g50
I2012
I3
I1
tp526
F79.25
s(g93
g94
I2012
I1
I1
tp527
I-1
s(g99
g100
I2012
I1
I1
tp528
F99.75
s(g239
g240
I2012
I5
I1
tp529
F76.25
s(g337
g338
I2012
I7
I1
tp530
F106.5
s(g105
g106
I2012
I1
I1
tp531
F58.25
s(g319
g320
I2012
I4
I1
tp532
F83.75
s(g225
g226
I2012
I11
I1
tp533
I-1
s(g437
g438
I2012
I9
I1
tp534
I-1
s(S'Bremen'
p535
S'Germany'
p536
I2012
I12
I1
tp537
F41.75
s(S'Maputo'
p538
S'Mozambique'
p539
I2012
I10
I1
tp540
F92.5
s(g371
S'United States'
p541
I2012
I6
I1
tp542
I-1
s(g351
VUS
p543
I2012
I10
I1
tp544
I-1
s(g108
g109
I2012
I10
I1
tp545
I-1
s(g126
g127
I2012
I9
I1
tp546
F78.5
s(g114
g115
I2012
I5
I1
tp547
I-1
s(g108
g109
I2012
I11
I1
tp548
I-1
s(g90
g91
I2012
I1
I1
tp549
F81
s(g441
g442
I2012
I10
I1
tp550
F98.75
s(g96
g97
I2012
I3
I1
tp551
I-1
s(S'Huambo'
p552
S'Angola'
p553
I2012
I9
I1
tp554
I-1
s(g140
g141
I2012
I10
I1
tp555
I-1
s(S'Warsaw'
p556
S'Poland'
p557
I2012
I4
I1
tp558
F57.5
s(g146
g147
I2012
I2
I1
tp559
I-1
s(g152
g153
I2012
I2
I1
tp560
I-1
s(g158
g159
I2012
I3
I1
tp561
F88.25
s(g164
g165
I2012
I11
I1
tp562
I-1
s(g253
g254
I2012
I2
I1
tp563
F40
s(g274
g275
I2012
I3
I1
tp564
F56.25
s(g392
g393
I2012
I12
I1
tp565
F41.25
s(S'Tianjin'
p566
S'China'
p567
I2012
I4
I1
tp568
F62
s(g282
g283
I2012
I6
I1
tp569
I-1
s(g167
g168
I2012
I12
I1
tp570
F62
s(g176
g177
I2012
I12
I1
tp571
I-1
s(g120
g411
I2012
I10
I1
tp572
I-1
s(g374
g375
I2012
I6
I1
tp573
F88.5
s(g173
g174
I2012
I9
I1
tp574
F97.5
s(g187
g188
I2012
I9
I1
tp575
I-1
s(g143
g144
I2012
I10
I1
tp576
I-1
s(g497
g498
I2012
I6
I1
tp577
I-1
s(S'Accra'
p578
S'Ghana'
p579
I2012
I1
I1
tp580
I-1
s(S'South Yorkshire'
p581
S'United Kingdom'
p582
I2012
I8
I1
tp583
I-1
s(g158
g159
I2012
I12
I1
tp584
F91.25
s(g161
g162
I2012
I7
I1
tp585
F79.5
s(g383
g384
I2012
I7
I1
tp586
F94.5
s(g167
g168
I2012
I9
I1
tp587
F95.75
s(S'Zagreb'
p588
S'Croatia'
p589
I2012
I2
I1
tp590
F36.75
s(g5
g6
I2012
I6
I1
tp591
F101.75
s(g392
g393
I2012
I7
I1
tp592
F98.25
s(g309
g367
I2012
I6
I1
tp593
I-1
s(g11
g12
I2012
I1
I1
tp594
F92.75
s(g17
g18
I2012
I9
I1
tp595
I-1
s(S'Pretoria'
p596
S'South Africa'
p597
I2012
I5
I1
tp598
F79.5
s(S'Luanda'
p599
S'Angola'
p600
I2012
I2
I1
tp601
I-1
s(g181
g182
I2012
I1
I1
tp602
I-1
s(g114
g115
I2012
I8
I1
tp603
I-1
s(g120
g411
I2012
I2
I1
tp604
I-1
s(g371
g372
I2012
I5
I1
tp605
F64.75
s(S'Seattle'
p606
S'United States'
p607
I2012
I9
I1
tp608
F76.25
s(g330
g331
I2012
I1
I1
tp609
F69.5
s(g41
g42
I2012
I6
I1
tp610
I-1
s(g46
g47
I2012
I2
I1
tp611
F56.25
s(g52
g53
I2012
I12
I1
tp612
F97.75
s(g493
g494
I2012
I9
I1
tp613
F97.5
s(g55
g56
I2012
I7
I1
tp614
I-1
s(g133
g415
I2012
I7
I1
tp615
I-1
s(g2
g3
I2012
I7
I1
tp616
F83.5
s(g502
g503
I2012
I9
I1
tp617
F98.5
s(g67
g68
I2012
I1
I1
tp618
I-1
s(g8
g9
I2012
I1
I1
tp619
F23
s(g507
g508
I2012
I11
I1
tp620
F101.75
s(g510
g511
I2012
I10
I1
tp621
F72.5
s(g70
g71
I2012
I6
I1
tp622
F96.25
s(g20
g21
I2012
I7
I1
tp623
I-1
s(g228
g229
I2012
I10
I1
tp624
F106
s(S'Belo Horizonte'
p625
S'Brazil'
p626
I2012
I11
I1
tp627
F85.5
s(g133
g134
I2012
I6
I1
tp628
F95.75
s(g519
g520
I2012
I11
I1
tp629
I-1
s(g38
g39
I2012
I6
I1
tp630
I-1
s(g225
g226
I2012
I3
I1
tp631
I-1
s(g49
g50
I2012
I1
I1
tp632
F70.5
s(g222
S'United States'
p633
I2012
I12
I1
tp634
F45.75
s(g99
g100
I2012
I7
I1
tp635
F100.5
s(g239
g240
I2012
I11
I1
tp636
F57.25
s(g102
g103
I2012
I12
I1
tp637
I-1
s(g337
g338
I2012
I5
I1
tp638
F86.5
s(g105
g106
I2012
I3
I1
tp639
F81.75
s(g319
g320
I2012
I2
I1
tp640
F89.75
s(S'Barcelona'
p641
S'Spain'
p642
I2012
I9
I1
tp643
F94.25
s(g437
g438
I2012
I11
I1
tp644
I-1
s(g61
g62
I2012
I6
I1
tp645
F101.25
s(g250
g251
I2012
I1
I1
tp646
I-1
s(g73
g74
I2012
I11
I1
tp647
F90.5
s(g111
g112
I2012
I12
I1
tp648
I-1
s(S'Guadalajara Metropolitan Area'
p649
S'Mexico'
p650
I2012
I9
I1
tp651
I-1
s(g344
g345
I2012
I12
I1
tp652
F93.75
s(g351
g543
I2012
I8
I1
tp653
I-1
s(g5
g118
I2012
I2
I1
tp654
I-1
s(g120
g121
I2012
I2
I1
tp655
F41.75
s(g126
g127
I2012
I11
I1
tp656
F81
s(g351
g352
I2012
I10
I1
tp657
I-1
s(g441
g442
I2012
I12
I1
tp658
F93
s(g236
g237
I2012
I3
I1
tp659
F83
s(g552
g553
I2012
I11
I1
tp660
I-1
s(g102
g103
I2012
I3
I1
tp661
I-1
s(g140
g141
I2012
I12
I1
tp662
I-1
s(g523
S'United States'
p663
I2012
I10
I1
tp664
I-1
s(S'Monrovia'
p665
S'Liberia'
p666
I2012
I3
I1
tp667
I-1
s(g395
g396
I2012
I12
I1
tp668
F42.25
s(g351
g352
I2012
I5
I1
tp669
I-1
s(S'Guadalajara'
p670
S'Mexico'
p671
I2012
I8
I1
tp672
F89.75
s(g374
g375
I2012
I8
I1
tp673
F101.25
s(g606
VWA
p674
I2012
I8
I1
tp675
F82.75
s(g187
g188
I2012
I11
I1
tp676
I-1
s(g143
g144
I2012
I12
I1
tp677
I-1
s(g497
g498
I2012
I4
I1
tp678
I-1
s(g32
g33
I2012
I8
I1
tp679
F81.25
s(g606
g607
I2012
I5
I1
tp680
F65
s(g161
g162
I2012
I9
I1
tp681
F76.75
s(g383
g384
I2012
I5
I1
tp682
F75.25
s(g271
g272
I2012
I9
I1
tp683
F84.25
s(g386
g387
I2012
I12
I1
tp684
F42.25
s(g566
g567
I2012
I5
I1
tp685
F85.5
s(g41
g44
I2012
I5
I1
tp686
I-1
s(g392
g393
I2012
I9
I1
tp687
F93.25
s(S'Seville'
p688
S'Spain'
p689
I2012
I6
I1
tp690
I-1
s(g176
g177
I2012
I1
I1
tp691
I-1
s(g181
g182
I2012
I3
I1
tp692
I-1
s(g114
g115
I2012
I10
I1
tp693
I-1
s(g371
g372
I2012
I3
I1
tp694
F26.25
s(S'Athens'
p695
S'Greece'
p696
I2012
I5
I1
tp697
F82.25
s(S'Yaound\xc3\xa9'
p698
S'Cameroon'
p699
I2012
I1
I1
tp700
I-1
s(g193
g194
I2012
I2
I1
tp701
I-1
s(g52
g53
I2012
I10
I1
tp702
F103.5
s(g493
g494
I2012
I7
I1
tp703
F96.25
s(g55
g56
I2012
I5
I1
tp704
I-1
s(g133
g415
I2012
I5
I1
tp705
I-1
s(g2
g3
I2012
I1
I1
tp706
F38.5
s(g578
g579
I2012
I8
I1
tp707
I-1
s(g5
g6
I2012
I11
I1
tp708
F86.75
s(g67
g68
I2012
I7
I1
tp709
I-1
s(g8
g9
I2012
I3
I1
tp710
F33.75
s(g507
g508
I2012
I5
I1
tp711
F107.25
s(g11
g12
I2012
I12
I1
tp712
F87.5
s(g203
g204
I2012
I4
I1
tp713
F96.25
s(g510
g511
I2012
I12
I1
tp714
F47.5
s(g70
g71
I2012
I4
I1
tp715
F91
s(g20
g21
I2012
I1
I1
tp716
I-1
s(g76
g77
I2012
I5
I1
tp717
F74.5
s(g23
g24
I2012
I1
I1
tp718
F96.5
s(g625
g626
I2012
I9
I1
tp719
F82.75
s(g26
g27
I2012
I8
I1
tp720
I-1
s(g519
g520
I2012
I5
I1
tp721
I-1
s(g214
g215
I2012
I3
I1
tp722
I-1
s(g49
g50
I2012
I7
I1
tp723
F105.75
s(g222
g633
I2012
I2
I1
tp724
F36.25
s(S'Guatemala City'
p725
S'Guatemala'
p726
I2012
I9
I1
tp727
F85.25
s(g99
g100
I2012
I5
I1
tp728
F102.5
s(g239
g240
I2012
I9
I1
tp729
F83
s(g55
g56
I2012
I10
I1
tp730
I-1
s(g105
g106
I2012
I5
I1
tp731
F110
s(g641
g642
I2012
I11
I1
tp732
F77.25
s(g437
g438
I2012
I5
I1
tp733
I-1
s(g61
g62
I2012
I4
I1
tp734
F104
s(g535
g536
I2012
I8
I1
tp735
F85.5
s(g250
g251
I2012
I3
I1
tp736
I-1
s(g649
g650
I2012
I11
I1
tp737
I-1
s(g344
g345
I2012
I2
I1
tp738
F94
s(g120
g121
I2012
I4
I1
tp739
F57.25
s(g203
g204
I2012
I2
I1
tp740
F100.75
s(g236
g237
I2012
I1
I1
tp741
F85.75
s(S'Saarbr\xc3\xbccken'
p742
S'Germany'
p743
I2012
I6
I1
tp744
I-1
s(g395
g396
I2012
I8
I1
tp745
F84
s(g96
g97
I2012
I7
I1
tp746
I-1
s(g552
g553
I2012
I5
I1
tp747
I-1
s(g102
g103
I2012
I1
I1
tp748
I-1
s(g64
g65
I2012
I4
I1
tp749
I-1
s(g155
g156
I2012
I9
I1
tp750
F71
s(S'Durban'
p751
S'South Africa'
p752
I2012
I10
I1
tp753
I-1
s(g665
g666
I2012
I1
I1
tp754
F99
s(g282
g283
I2012
I2
I1
tp755
F100.5
s(g173
g174
I2012
I4
I1
tp756
I-1
s(g578
g579
I2012
I4
I1
tp757
F107
s(g108
g109
I2012
I4
I1
tp758
I-1
s(g184
g185
I2012
I5
I1
tp759
I-1
s(g374
g375
I2012
I10
I1
tp760
F84
s(g140
g141
I2012
I1
I1
tp761
I-1
s(g41
g44
I2012
I6
I1
tp762
I-1
s(g463
g464
I2012
I6
I1
tp763
F109.25
s(g158
g159
I2012
I8
I1
tp764
F76
s(g161
g162
I2012
I11
I1
tp765
F55.75
s(g407
g408
I2012
I9
I1
tp766
I-1
s(g271
g272
I2012
I11
I1
tp767
F49.25
s(g386
g387
I2012
I2
I1
tp768
F16.25
s(g606
g674
I2012
I9
I1
tp769
F76.25
s(g392
g393
I2012
I11
I1
tp770
F57.75
s(g55
VCO
p771
I2012
I4
I1
tp772
F59
s(g309
g367
I2012
I2
I1
tp773
I-1
s(g399
g400
I2012
I1
I1
tp774
F47.5
s(g176
g177
I2012
I3
I1
tp775
I-1
s(g599
g600
I2012
I6
I1
tp776
I-1
s(g181
g182
I2012
I5
I1
tp777
I-1
s(S'Cape Town'
p778
S'South Africa'
p779
I2012
I2
I1
tp780
F87.5
s(g371
g372
I2012
I1
I1
tp781
F12.75
s(g695
g696
I2012
I7
I1
tp782
F100.25
s(g190
g191
I2012
I11
I1
tp783
F102.75
s(g523
g524
I2012
I12
I1
tp784
F66.75
s(g52
g53
I2012
I8
I1
tp785
F92.25
s(g493
g494
I2012
I5
I1
tp786
F100.5
s(g497
S'United States'
p787
I2012
I5
I1
tp788
I-1
s(g133
g415
I2012
I3
I1
tp789
I-1
s(g2
g3
I2012
I3
I1
tp790
F51
s(g578
g579
I2012
I10
I1
tp791
F101.5
s(g41
g44
I2012
I8
I1
tp792
I-1
s(g67
g68
I2012
I5
I1
tp793
I-1
s(g463
S'United States'
p794
I2012
I3
I1
tp795
I-1
s(g309
g310
I2012
I6
I1
tp796
I-1
s(g11
g12
I2012
I10
I1
tp797
F73.75
s(S'Kharkiv'
p798
S'Ukraine'
p799
I2012
I1
I1
tp800
F29
s(g23
g24
I2012
I3
I1
tp801
F98
s(g26
g27
I2012
I10
I1
tp802
I-1
s(g519
g520
I2012
I7
I1
tp803
I-1
s(g214
g215
I2012
I1
I1
tp804
I-1
s(g64
g65
I2012
I8
I1
tp805
I-1
s(g371
g372
I2012
I12
I1
tp806
F34
s(g49
g50
I2012
I5
I1
tp807
F100
s(g330
g331
I2012
I3
I1
tp808
F79.5
s(g313
g314
I2012
I1
I1
tp809
I-1
s(g52
g53
I2012
I7
I1
tp810
F93.25
s(g484
g485
I2012
I11
I1
tp811
F87
s(g243
g244
I2012
I5
I1
tp812
F99.5
s(g55
g56
I2012
I8
I1
tp813
I-1
s(g105
g106
I2012
I7
I1
tp814
F110.75
s(g73
g74
I2012
I9
I1
tp815
F93.25
s(g61
g62
I2012
I2
I1
tp816
F105.5
s(g535
g536
I2012
I10
I1
tp817
F68.25
s(g67
g68
I2012
I10
I1
tp818
I-1
s(g250
g251
I2012
I5
I1
tp819
I-1
s(g351
g543
I2012
I12
I1
tp820
I-1
s(g120
g121
I2012
I6
I1
tp821
F85
s(g55
g771
I2012
I11
I1
tp822
F61.25
s(g222
g223
I2012
I7
I1
tp823
F88
s(g90
g91
I2012
I11
I1
tp824
F101.5
s(g96
g97
I2012
I9
I1
tp825
I-1
s(g552
g553
I2012
I7
I1
tp826
I-1
s(g102
g103
I2012
I7
I1
tp827
I-1
s(S'Zaria'
p828
S'Nigeria'
p829
I2012
I8
I1
tp830
I-1
s(g105
g106
I2012
I8
I1
tp831
F110.25
s(S'Rome'
p832
S'Italy'
p833
I2012
I6
I1
tp834
F84.5
s(S'Bangkok'
p835
S'Thailand'
p836
I2012
I12
I1
tp837
I-1
s(g155
g156
I2012
I11
I1
tp838
F46.25
s(g253
g254
I2012
I12
I1
tp839
F46.5
s(g274
g275
I2012
I9
I1
tp840
F80.25
s(g463
g794
I2012
I1
I1
tp841
I-1
s(g665
g666
I2012
I7
I1
tp842
I-1
s(g5
g118
I2012
I9
I1
tp843
I-1
s(g120
g121
I2012
I9
I1
tp844
F90.25
s(g351
g352
I2012
I1
I1
tp845
I-1
s(S'Conakry'
p846
S'Guinea'
p847
I2012
I10
I1
tp848
I-1
s(g351
g352
I2012
I7
I1
tp849
I-1
s(g374
g375
I2012
I12
I1
tp850
F62.25
s(g140
g141
I2012
I3
I1
tp851
I-1
s(g497
g498
I2012
I8
I1
tp852
I-1
s(g146
g147
I2012
I11
I1
tp853
I-1
s(g155
g156
I2012
I4
I1
tp854
F48
s(g158
g159
I2012
I10
I1
tp855
F83.75
s(g164
g165
I2012
I2
I1
tp856
I-1
s(g271
g272
I2012
I5
I1
tp857
F72.75
s(g588
g589
I2012
I12
I1
tp858
F48.25
s(g170
g171
I2012
I6
I1
tp859
F80
s(g309
g367
I2012
I12
I1
tp860
I-1
s(g751
g752
I2012
I3
I1
tp861
I-1
s(g176
g177
I2012
I5
I1
tp862
I-1
s(g392
g393
I2012
I2
I1
tp863
F32.5
s(g599
g600
I2012
I4
I1
tp864
I-1
s(g181
g182
I2012
I7
I1
tp865
I-1
s(g523
g663
I2012
I8
I1
tp866
I-1
s(g225
g226
I2012
I6
I1
tp867
I-1
s(g23
g24
I2012
I12
I1
tp868
F99.5
s(g695
g696
I2012
I1
I1
tp869
F64.25
s(g386
g387
I2012
I9
I1
tp870
F84
s(g190
g191
I2012
I9
I1
tp871
F102.75
s(g193
g194
I2012
I6
I1
tp872
I-1
s(g313
g314
I2012
I8
I1
tp873
I-1
s(g493
g494
I2012
I3
I1
tp874
F102.25
s(g497
g787
I2012
I7
I1
tp875
I-1
s(g61
g62
I2012
I8
I1
tp876
F96.75
s(g114
g179
I2012
I2
I1
tp877
F64.5
s(g490
g491
I2012
I2
I1
tp878
F40.25
s(g507
g508
I2012
I1
I1
tp879
F99.25
s(g11
g12
I2012
I8
I1
tp880
F61.75
s(S'Kazan'
p881
S'Russia'
p882
I2012
I8
I1
tp883
F89
s(g23
g24
I2012
I5
I1
tp884
F100
s(g164
S'United States'
p885
I2012
I3
I1
tp886
I-1
s(g519
g520
I2012
I1
I1
tp887
I-1
s(g214
g215
I2012
I7
I1
tp888
I-1
s(g46
g47
I2012
I11
I1
tp889
F77.25
s(S'Dhaka'
p890
S'Bangladesh'
p891
I2012
I10
I1
tp892
I-1
s(g330
g331
I2012
I5
I1
tp893
F86.25
s(g606
g607
I2012
I3
I1
tp894
F55.5
s(g52
g53
I2012
I5
I1
tp895
F103.25
s(g319
g320
I2012
I12
I1
tp896
F79.75
s(g437
g438
I2012
I1
I1
tp897
I-1
s(g243
g244
I2012
I4
I1
tp898
F101.75
s(g535
g536
I2012
I4
I1
tp899
F56.5
s(g67
g68
I2012
I8
I1
tp900
I-1
s(g250
g251
I2012
I7
I1
tp901
I-1
s(g96
g97
I2012
I10
I1
tp902
I-1
s(g344
g345
I2012
I6
I1
tp903
F95.25
s(g351
g543
I2012
I2
I1
tp904
I-1
s(g203
g204
I2012
I6
I1
tp905
F87.75
s(g742
g743
I2012
I2
I1
tp906
I-1
s(g90
g91
I2012
I9
I1
tp907
F107
s(g441
g442
I2012
I2
I1
tp908
F93
s(g96
g97
I2012
I11
I1
tp909
I-1
s(g239
g240
I2012
I2
I1
tp910
F26.75
s(g552
g553
I2012
I1
I1
tp911
I-1
s(g102
g103
I2012
I5
I1
tp912
I-1
s(g105
g106
I2012
I10
I1
tp913
F107
s(g835
g836
I2012
I10
I1
tp914
I-1
s(g250
g251
I2012
I8
I1
tp915
I-1
s(g253
g254
I2012
I10
I1
tp916
F70.5
s(g274
g275
I2012
I11
I1
tp917
F59.25
s(g463
g794
I2012
I7
I1
tp918
I-1
s(g665
g666
I2012
I5
I1
tp919
I-1
s(g5
g118
I2012
I11
I1
tp920
I-1
s(g120
g121
I2012
I11
I1
tp921
F61.25
s(g351
g352
I2012
I3
I1
tp922
I-1
s(g846
g847
I2012
I8
I1
tp923
I-1
s(g556
g557
I2012
I6
I1
tp924
F77
s(g140
g141
I2012
I5
I1
tp925
I-1
s(S'Bristol'
p926
S'United Kingdom'
p927
I2012
I3
I1
tp928
F53
s(g143
g144
I2012
I2
I1
tp929
F92
s(g463
g464
I2012
I2
I1
tp930
F70.75
s(g146
g147
I2012
I9
I1
tp931
I-1
s(g155
g156
I2012
I6
I1
tp932
F77.75
s(g158
g159
I2012
I4
I1
tp933
F88
s(g164
g165
I2012
I4
I1
tp934
I-1
s(g271
g272
I2012
I7
I1
tp935
F84.5
s(g274
g275
I2012
I4
I1
tp936
F61.25
s(g386
g387
I2012
I6
I1
tp937
F83.25
s(g170
g171
I2012
I4
I1
tp938
F48.5
s(g282
g283
I2012
I9
I1
tp939
I-1
s(g399
g400
I2012
I5
I1
tp940
F92.25
s(g176
g177
I2012
I7
I1
tp941
I-1
s(g599
g600
I2012
I10
I1
tp942
I-1
s(g371
g541
I2012
I12
I1
tp943
I-1
s(g181
g182
I2012
I9
I1
tp944
I-1
s(g778
g779
I2012
I6
I1
tp945
F71.5
s(g695
g696
I2012
I3
I1
tp946
F62.75
s(g190
g191
I2012
I7
I1
tp947
F104.5
s(g76
g77
I2012
I11
I1
tp948
F58.75
s(g309
g310
I2012
I3
I1
tp949
I-1
s(g193
g194
I2012
I4
I1
tp950
I-1
s(g120
g411
I2012
I1
I1
tp951
I-1
s(g493
g494
I2012
I1
I1
tp952
F102.5
s(g497
g787
I2012
I1
I1
tp953
I-1
s(S'Santo Domingo'
p954
S'Dominican Republic'
p955
I2012
I6
I1
tp956
I-1
s(g41
g44
I2012
I12
I1
tp957
I-1
s(g8
g9
I2012
I9
I1
tp958
F66
s(g507
g508
I2012
I3
I1
tp959
F103
s(g11
g12
I2012
I6
I1
tp960
F66.25
s(S'Casablanca'
p961
S'Morocco'
p962
I2012
I11
I1
tp963
F83
s(g510
g511
I2012
I2
I1
tp964
F33.25
s(g23
g24
I2012
I7
I1
tp965
F105
s(g164
g885
I2012
I1
I1
tp966
I-1
s(g625
g626
I2012
I3
I1
tp967
F87.5
s(g519
g520
I2012
I3
I1
tp968
I-1
s(g688
g689
I2012
I12
I1
tp969
I-1
s(g214
g215
I2012
I5
I1
tp970
I-1
s(S'Algiers'
p971
S'Algeria'
p972
I2012
I5
I1
tp973
F77.5
s(g46
g47
I2012
I9
I1
tp974
F97.25
s(g890
g891
I2012
I8
I1
tp975
I-1
s(g330
g331
I2012
I7
I1
tp976
F81.25
s(g52
g53
I2012
I3
I1
tp977
F99
s(g55
g56
I2012
I12
I1
tp978
I-1
s(g319
g320
I2012
I10
I1
tp979
F75.75
s(g641
g642
I2012
I1
I1
tp980
F62.75
s(g133
g415
I2012
I12
I1
tp981
I-1
s(g437
g438
I2012
I3
I1
tp982
I-1
s(g243
g244
I2012
I10
I1
tp983
F96.75
s(S'Alexandria'
p984
S'Egypt'
p985
I2012
I6
I1
tp986
F97
s(g535
g536
I2012
I6
I1
tp987
F73.75
s(g32
g33
I2012
I7
I1
tp988
F83.5
s(g507
g508
I2012
I12
I1
tp989
F103.25
s(g649
g650
I2012
I1
I1
tp990
I-1
s(g344
g345
I2012
I4
I1
tp991
F95
s(S'Ogbomosho'
p992
S'Nigeria'
p993
I2012
I11
I1
tp994
I-1
s(g519
g520
I2012
I12
I1
tp995
I-1
s(g798
g799
I2012
I8
I1
tp996
F93.25
s(g437
g438
I2012
I10
I1
tp997
I-1
s(S'Delaware Valley'
p998
VValley
p999
I2012
I3
I1
tp1000
I-1
s(g222
g223
I2012
I3
I1
tp1001
F37.75
s(g330
g331
I2012
I8
I1
tp1002
F82
s(g441
g442
I2012
I4
I1
tp1003
F107.5
s(g236
g237
I2012
I11
I1
tp1004
F78.25
s(g552
g553
I2012
I3
I1
tp1005
I-1
s(g102
g103
I2012
I11
I1
tp1006
I-1
s(g225
g226
I2012
I12
I1
tp1007
I-1
s(g105
g106
I2012
I12
I1
tp1008
F77
s(g835
g836
I2012
I8
I1
tp1009
I-1
s(g73
g74
I2012
I2
I1
tp1010
F91
s(g250
g251
I2012
I10
I1
tp1011
I-1
s(g253
g254
I2012
I8
I1
tp1012
F84.75
s(g751
g752
I2012
I12
I1
tp1013
I-1
s(g344
g345
I2012
I11
I1
tp1014
F92.5
s(g665
g666
I2012
I11
I1
tp1015
F101.25
s(g5
g118
I2012
I5
I1
tp1016
I-1
s(S'Tunis'
p1017
S'Tunisia'
p1018
I2012
I9
I1
tp1019
I-1
s(g395
g396
I2012
I11
I1
tp1020
F56.25
s(g552
g553
I2012
I12
I1
tp1021
I-1
s(g140
g141
I2012
I7
I1
tp1022
I-1
s(g926
g927
I2012
I1
I1
tp1023
F46
s(g143
g144
I2012
I4
I1
tp1024
I-1
s(g133
g134
I2012
I11
I1
tp1025
F66.25
s(g497
g498
I2012
I12
I1
tp1026
I-1
s(g146
g147
I2012
I7
I1
tp1027
I-1
s(g158
g159
I2012
I6
I1
tp1028
F83.25
s(g164
g165
I2012
I6
I1
tp1029
I-1
s(g271
g272
I2012
I1
I1
tp1030
F32
s(g55
g771
I2012
I8
I1
tp1031
F93.25
s(g274
g275
I2012
I6
I1
tp1032
F76.75
s(g386
g387
I2012
I4
I1
tp1033
F56.75
s(g523
g663
I2012
I3
I1
tp1034
I-1
s(g742
g743
I2012
I1
I1
tp1035
I-1
s(g282
g283
I2012
I11
I1
tp1036
I-1
s(S'Monterrey'
p1037
S'Mexico'
p1038
I2012
I2
I1
tp1039
I-1
s(g309
g367
I2012
I8
I1
tp1040
I-1
s(g399
g400
I2012
I7
I1
tp1041
F106
s(g176
g177
I2012
I9
I1
tp1042
I-1
s(g599
g600
I2012
I8
I1
tp1043
I-1
s(g181
g182
I2012
I11
I1
tp1044
I-1
s(g778
g779
I2012
I4
I1
tp1045
F86.25
s(g371
g372
I2012
I11
I1
tp1046
F54
s(g114
g179
I2012
I4
I1
tp1047
F70.25
s(g190
g191
I2012
I5
I1
tp1048
F107
s(g76
g77
I2012
I9
I1
tp1049
F83.25
s(g79
g80
I2012
I8
I1
tp1050
F107.25
s(g581
g582
I2012
I7
I1
tp1051
I-1
s(g193
g194
I2012
I10
I1
tp1052
I-1
s(g670
g671
I2012
I10
I1
tp1053
F85.75
s(g497
g787
I2012
I3
I1
tp1054
I-1
s(g386
g387
I2012
I11
I1
tp1055
F48.25
s(g2
g3
I2012
I9
I1
tp1056
F74.5
s(g954
g955
I2012
I8
I1
tp1057
I-1
s(g5
g6
I2012
I3
I1
tp1058
F76.5
s(g8
g9
I2012
I11
I1
tp1059
F49
s(g11
g12
I2012
I4
I1
tp1060
F88
s(g961
g962
I2012
I9
I1
tp1061
F93.75
s(g399
g400
I2012
I8
I1
tp1062
F108
s(g510
g511
I2012
I4
I1
tp1063
F61.5
s(g20
g21
I2012
I9
I1
tp1064
I-1
s(g23
g24
I2012
I9
I1
tp1065
F104.75
s(g164
g885
I2012
I7
I1
tp1066
I-1
s(g625
g626
I2012
I1
I1
tp1067
F87
s(g507
g508
I2012
I7
I1
tp1068
F104.25
s(g971
g972
I2012
I7
I1
tp1069
F95
s(g46
g47
I2012
I7
I1
tp1070
F105.5
s(g76
g77
I2012
I6
I1
tp1071
F80.75
s(g52
g53
I2012
I1
I1
tp1072
F98.75
s(g493
g494
I2012
I12
I1
tp1073
F101.5
s(g55
g56
I2012
I2
I1
tp1074
I-1
s(g319
g320
I2012
I8
I1
tp1075
F70
s(g641
g642
I2012
I3
I1
tp1076
F65.5
s(g133
g415
I2012
I10
I1
tp1077
I-1
s(g502
g503
I2012
I12
I1
tp1078
F103.75
s(g67
g68
I2012
I12
I1
tp1079
I-1
s(g725
g726
I2012
I6
I1
tp1080
F86.5
s(g649
g650
I2012
I3
I1
tp1081
I-1
s(S'Abidjan'
p1082
S'Ivory Coast'
p1083
I2012
I1
I1
tp1084
F102
s(g992
g993
I2012
I9
I1
tp1085
I-1
s(g351
g543
I2012
I6
I1
tp1086
I-1
s(g351
g352
I2012
I11
I1
tp1087
I-1
s(g798
g799
I2012
I10
I1
tp1088
F64.5
s(g114
g115
I2012
I7
I1
tp1089
I-1
s(g998
g999
I2012
I1
I1
tp1090
I-1
s(g309
g310
I2012
I7
I1
tp1091
I-1
s(g330
g331
I2012
I10
I1
tp1092
F77.75
s(g441
g442
I2012
I6
I1
tp1093
F113.75
s(g236
g237
I2012
I9
I1
tp1094
F75.25
s(g954
g955
I2012
I12
I1
tp1095
I-1
s(S'Lubumbashi'
p1096
S'Democratic Republic of the Congo'
p1097
I2012
I2
I1
tp1098
I-1
s(g102
g103
I2012
I9
I1
tp1099
I-1
s(g835
g836
I2012
I6
I1
tp1100
I-1
s(g133
g134
I2012
I2
I1
tp1101
F56
s(g250
g251
I2012
I12
I1
tp1102
I-1
s(g751
g752
I2012
I2
I1
tp1103
I-1
s(g344
g345
I2012
I9
I1
tp1104
F94.5
s(g566
g567
I2012
I6
I1
tp1105
F92
s(g665
g666
I2012
I9
I1
tp1106
F97.5
s(g490
g491
I2012
I3
I1
tp1107
F53.25
s(g5
g118
I2012
I7
I1
tp1108
I-1
s(g38
g39
I2012
I10
I1
tp1109
F99.5
s(g1017
g1018
I2012
I11
I1
tp1110
I-1
s(g108
g109
I2012
I12
I1
tp1111
I-1
s(g846
g847
I2012
I12
I1
tp1112
I-1
s(g441
g442
I2012
I9
I1
tp1113
F100
s(g173
g174
I2012
I11
I1
tp1114
F101.5
s(g140
g141
I2012
I9
I1
tp1115
I-1
s(g926
g927
I2012
I7
I1
tp1116
F76.75
s(g143
g144
I2012
I6
I1
tp1117
F90.75
s(g146
g147
I2012
I5
I1
tp1118
I-1
s(g954
g955
I2012
I11
I1
tp1119
I-1
s(g155
g156
I2012
I2
I1
tp1120
F9.5
s(g606
g607
I2012
I11
I1
tp1121
F64
s(g164
g165
I2012
I8
I1
tp1122
I-1
s(g271
g272
I2012
I3
I1
tp1123
F36
s(g184
g185
I2012
I6
I1
tp1124
I-1
s(g371
g541
I2012
I1
I1
tp1125
I-1
s(g881
g882
I2012
I4
I1
tp1126
F44
s(g282
g283
I2012
I5
I1
tp1127
I-1
s(g1037
g1038
I2012
I4
I1
tp1128
I-1
s(g309
g367
I2012
I10
I1
tp1129
I-1
s(g176
g177
I2012
I11
I1
tp1130
I-1
s(g120
g411
I2012
I9
I1
tp1131
I-1
s(g778
g779
I2012
I10
I1
tp1132
F74.25
s(g120
g411
I2012
I12
I1
tp1133
I-1
s(g371
g372
I2012
I9
I1
tp1134
F89.5
s(g190
g191
I2012
I3
I1
tp1135
F98.25
s(S'Dallas'
p1136
VTX
p1137
I2012
I4
I1
tp1138
F86
s(g497
g498
I2012
I1
I1
tp1139
I-1
s(g193
g194
I2012
I8
I1
tp1140
I-1
s(g588
g589
I2012
I5
I1
tp1141
I-1
s(g2
g3
I2012
I11
I1
tp1142
F51.5
s(g578
g579
I2012
I2
I1
tp1143
I-1
s(g828
g829
I2012
I3
I1
tp1144
I-1
s(g5
g6
I2012
I1
I1
tp1145
F65.5
s(g11
g12
I2012
I2
I1
tp1146
F95
s(g961
g962
I2012
I7
I1
tp1147
I-1
s(g399
g400
I2012
I10
I1
tp1148
F86.5
s(g510
g511
I2012
I6
I1
tp1149
F78.25
s(g20
g21
I2012
I11
I1
tp1150
I-1
s(S'Cairo'
p1151
S'Egypt'
p1152
I2012
I12
I1
tp1153
F83.25
s(g23
g24
I2012
I11
I1
tp1154
F103.25
s(g164
g885
I2012
I5
I1
tp1155
I-1
s(g625
g626
I2012
I7
I1
tp1156
F79.25
s(g971
g972
I2012
I1
I1
tp1157
F68.5
s(S'Ouagadougou'
p1158
S'Burkina Faso'
p1159
I2012
I11
I1
tp1160
I-1
s(g46
g47
I2012
I5
I1
tp1161
F93.25
s(g890
g891
I2012
I12
I1
tp1162
I-1
s(g493
g494
I2012
I10
I1
tp1163
F98.5
s(g641
g642
I2012
I5
I1
tp1164
F74.75
s(g133
g415
I2012
I8
I1
tp1165
I-1
s(g502
g503
I2012
I10
I1
tp1166
F100.75
s(g535
g536
I2012
I2
I1
tp1167
F36
s(g67
g68
I2012
I2
I1
tp1168
I-1
s(g313
g314
I2012
I2
I1
tp1169
I-1
s(g507
g508
I2012
I8
I1
tp1170
F100.75
s(g437
g438
I2012
I7
I1
tp1171
I-1
s(g484
g485
I2012
I12
I1
tp1172
F85.5
s(g510
g511
I2012
I9
I1
tp1173
F79.5
s(g649
g650
I2012
I5
I1
tp1174
I-1
s(g1082
g1083
I2012
I3
I1
tp1175
F101.5
s(g992
g993
I2012
I7
I1
tp1176
I-1
s(g351
g543
I2012
I4
I1
tp1177
I-1
s(g519
g520
I2012
I8
I1
tp1178
I-1
s(g798
g799
I2012
I12
I1
tp1179
F45.75
s(g998
g999
I2012
I7
I1
tp1180
I-1
s(g742
g743
I2012
I12
I1
tp1181
I-1
s(g330
g331
I2012
I12
I1
tp1182
F73.5
s(g239
g240
I2012
I4
I1
tp1183
F61.75
s(g835
g836
I2012
I4
I1
tp1184
I-1
s(g73
g74
I2012
I6
I1
tp1185
F97.5
s(g463
g794
I2012
I9
I1
tp1186
I-1
s(g351
g543
I2012
I11
I1
tp1187
I-1
s(g581
g582
I2012
I1
I1
tp1188
I-1
s(g5
g118
I2012
I1
I1
tp1189
I-1
s(g670
g671
I2012
I9
I1
tp1190
F90.25
s(g120
g121
I2012
I1
I1
tp1191
F42.5
s(g351
g352
I2012
I9
I1
tp1192
I-1
s(g846
g847
I2012
I2
I1
tp1193
I-1
s(g441
g442
I2012
I11
I1
tp1194
F94
s(g552
g553
I2012
I8
I1
tp1195
I-1
s(g606
g674
I2012
I10
I1
tp1196
F74.25
s(g140
g141
I2012
I11
I1
tp1197
I-1
s(g926
g927
I2012
I5
I1
tp1198
F65
s(g146
g147
I2012
I3
I1
tp1199
I-1
s(g155
g156
I2012
I12
I1
tp1200
F34.75
s(g158
g159
I2012
I2
I1
tp1201
F91.25
s(g164
g165
I2012
I10
I1
tp1202
I-1
s(g274
g275
I2012
I2
I1
tp1203
F36.25
s(S'Fortaleza'
p1204
S'Brazil'
p1205
I2012
I12
I1
tp1206
F101.75
s(g282
g283
I2012
I7
I1
tp1207
I-1
s(g1037
g1038
I2012
I6
I1
tp1208
I-1
s(g599
g600
I2012
I12
I1
tp1209
I-1
s(g120
g411
I2012
I11
I1
tp1210
I-1
s(g778
g779
I2012
I8
I1
tp1211
F67.25
s(g695
g696
I2012
I9
I1
tp1212
F100
s(g190
g191
I2012
I1
I1
tp1213
F92.25
s(g1136
g1137
I2012
I6
I1
tp1214
F102.25
s(g497
g498
I2012
I7
I1
tp1215
I-1
s(S'Ahmedabad'
p1216
S'India'
p1217
I2012
I9
I1
tp1218
F107
s(g588
g589
I2012
I3
I1
tp1219
F57.25
s(g798
g799
I2012
I4
I1
tp1220
F54.5
s(g828
g829
I2012
I1
I1
tp1221
I-1
s(g5
g6
I2012
I7
I1
tp1222
F104.75
s(g64
g65
I2012
I1
I1
tp1223
I-1
s(g961
g962
I2012
I5
I1
tp1224
F77.25
s(g399
g400
I2012
I12
I1
tp1225
F59.5
s(S'Cotonou'
p1226
S'Benin'
p1227
I2012
I10
I1
tp1228
F99
s(g599
g600
I2012
I3
I1
tp1229
I-1
s(g114
g115
I2012
I9
I1
tp1230
I-1
s(g164
g885
I2012
I11
I1
tp1231
I-1
s(g625
g626
I2012
I5
I1
tp1232
F83.5
s(g316
g317
I2012
I11
I1
tp1233
F98.25
s(g971
g972
I2012
I3
I1
tp1234
F67.5
s(g1158
g1159
I2012
I9
I1
tp1235
I-1
s(g46
g47
I2012
I3
I1
tp1236
F68
s(g890
g891
I2012
I2
I1
tp1237
I-1
s(g225
g226
I2012
I4
I1
tp1238
I-1
s(g538
g539
I2012
I5
I1
tp1239
I-1
s(g493
g494
I2012
I8
I1
tp1240
F95.5
s(S'Newcastle upon Tyne'
p1241
S'United Kingdom'
p1242
I2012
I12
I1
tp1243
F42.25
s(g55
g56
I2012
I6
I1
tp1244
I-1
s(g641
g642
I2012
I7
I1
tp1245
F95.5
s(g133
g415
I2012
I6
I1
tp1246
I-1
s(S'Addis Ababa'
p1247
S'Ethiopia'
p1248
I2012
I9
I1
tp1249
I-1
s(g243
g244
I2012
I12
I1
tp1250
F100
s(g742
g743
I2012
I4
I1
tp1251
I-1
s(g32
g33
I2012
I9
I1
tp1252
F70.25
s(g507
g508
I2012
I10
I1
tp1253
F100.5
s(g114
g115
I2012
I2
I1
tp1254
I-1
s(g510
g511
I2012
I11
I1
tp1255
F57.5
s(g649
g650
I2012
I7
I1
tp1256
I-1
s(g1082
g1083
I2012
I5
I1
tp1257
F105.25
s(g992
g993
I2012
I5
I1
tp1258
I-1
s(g79
g80
I2012
I6
I1
tp1259
F110.25
s(g625
g626
I2012
I10
I1
tp1260
F88.25
s(g519
g520
I2012
I10
I1
tp1261
I-1
s(g55
g771
I2012
I1
I1
tp1262
F30.5
s(g998
g999
I2012
I5
I1
tp1263
I-1
s(g742
g743
I2012
I10
I1
tp1264
I-1
s(g239
g240
I2012
I10
I1
tp1265
F76.75
s(g1096
g1097
I2012
I6
I1
tp1266
I-1
s(g566
g567
I2012
I11
I1
tp1267
F62.5
s(g105
g106
I2012
I2
I1
tp1268
F70.75
s(g641
g642
I2012
I8
I1
tp1269
F98
s(g835
g836
I2012
I2
I1
tp1270
I-1
s(g73
g74
I2012
I4
I1
tp1271
F101
s(S'Abuja'
p1272
S'Nigeria'
p1273
I2012
I11
I1
tp1274
F100.75
s(g649
g650
I2012
I8
I1
tp1275
I-1
s(g751
g752
I2012
I6
I1
tp1276
I-1
s(g351
g543
I2012
I9
I1
tp1277
I-1
s(g490
g491
I2012
I7
I1
tp1278
F79
s(g5
g118
I2012
I3
I1
tp1279
I-1
s(g173
g174
I2012
I6
I1
tp1280
I-1
s(g120
g121
I2012
I3
I1
tp1281
F41.25
s(g203
g204
I2012
I1
I1
tp1282
F99.25
s(g114
g179
I2012
I8
I1
tp1283
F78
s(g566
g567
I2012
I10
I1
tp1284
F81.75
s(g108
g109
I2012
I8
I1
tp1285
I-1
s(g184
g185
I2012
I3
I1
tp1286
I-1
s(g552
g553
I2012
I10
I1
tp1287
I-1
s(g926
g927
I2012
I11
I1
tp1288
F57.5
s(g41
g44
I2012
I4
I1
tp1289
I-1
s(g146
g147
I2012
I1
I1
tp1290
I-1
s(g556
g557
I2012
I5
I1
tp1291
F75.75
s(g164
g165
I2012
I12
I1
tp1292
I-1
s(g596
g597
I2012
I2
I1
tp1293
I-1
s(g274
g275
I2012
I12
I1
tp1294
F42.5
s(g1204
g1205
I2012
I10
I1
tp1295
F101
s(g665
g666
I2012
I2
I1
tp1296
I-1
s(g282
g283
I2012
I1
I1
tp1297
I-1
s(g1037
g1038
I2012
I8
I1
tp1298
I-1
s(S'Tehran'
p1299
S'Iran'
p1300
I2012
I1
I1
tp1301
F54
s(g523
g663
I2012
I6
I1
tp1302
I-1
s(g695
g696
I2012
I11
I1
tp1303
F76
s(g76
g77
I2012
I3
I1
tp1304
F52
s(g497
g498
I2012
I5
I1
tp1305
I-1
s(g193
g194
I2012
I12
I1
tp1306
I-1
s(g998
S'United States'
p1307
I2012
I4
I1
tp1308
I-1
s(g1216
g1217
I2012
I11
I1
tp1309
F99
s(g497
g787
I2012
I9
I1
tp1310
I-1
s(g588
g589
I2012
I1
I1
tp1311
F37.75
s(g578
g579
I2012
I6
I1
tp1312
I-1
s(g828
g829
I2012
I7
I1
tp1313
I-1
s(g5
g6
I2012
I5
I1
tp1314
F99.25
s(g751
g752
I2012
I8
I1
tp1315
I-1
s(g961
g962
I2012
I3
I1
tp1316
F71.5
s(g1226
g1227
I2012
I8
I1
tp1317
F97.75
s(g599
g600
I2012
I1
I1
tp1318
I-1
s(g1151
g1152
I2012
I8
I1
tp1319
F107.5
s(g114
g115
I2012
I11
I1
tp1320
I-1
s(g164
g885
I2012
I9
I1
tp1321
I-1
s(g173
g174
I2012
I7
I1
tp1322
F97.25
s(g484
g485
I2012
I9
I1
tp1323
F82.75
s(g695
g696
I2012
I4
I1
tp1324
F76
s(g46
g47
I2012
I1
I1
tp1325
F55.5
s(g64
g65
I2012
I12
I1
tp1326
I-1
s(g83
g84
I2012
I4
I1
tp1327
I-1
s(g52
g53
I2012
I11
I1
tp1328
F97
s(g316
g317
I2012
I9
I1
tp1329
F98
s(g493
g494
I2012
I6
I1
tp1330
F99.25
s(g1241
g1242
I2012
I10
I1
tp1331
F67.5
s(g55
g56
I2012
I4
I1
tp1332
I-1
s(g133
g415
I2012
I4
I1
tp1333
I-1
s(g1247
g1248
I2012
I11
I1
tp1334
I-1
s(g954
g955
I2012
I1
I1
tp1335
I-1
s(g881
g882
I2012
I10
I1
tp1336
F56.25
s(g67
g68
I2012
I6
I1
tp1337
I-1
s(g507
g508
I2012
I4
I1
tp1338
F104.25
s(g1082
g1083
I2012
I7
I1
tp1339
F98
s(g992
g993
I2012
I3
I1
tp1340
I-1
s(g625
g626
I2012
I8
I1
tp1341
F80.75
s(g519
g520
I2012
I4
I1
tp1342
I-1
s(S'Katowice'
p1343
S'Poland'
p1344
I2012
I12
I1
tp1345
F42.5
s(g351
g352
I2012
I2
I1
tp1346
I-1
s(g998
g999
I2012
I11
I1
tp1347
I-1
s(g742
g743
I2012
I8
I1
tp1348
I-1
s(g222
g633
I2012
I3
I1
tp1349
F37.75
s(g239
g240
I2012
I8
I1
tp1350
F92.75
s(g1096
g1097
I2012
I4
I1
tp1351
I-1
s(g984
g985
I2012
I4
I1
tp1352
F83.75
s(g105
g106
I2012
I4
I1
tp1353
F97.75
s(g641
g642
I2012
I10
I1
tp1354
F85.25
s(g73
g74
I2012
I10
I1
tp1355
F93.75
s(g535
g536
I2012
I9
I1
tp1356
F76
s(g725
g726
I2012
I1
I1
tp1357
F83
s(g250
g251
I2012
I2
I1
tp1358
I-1
s(g1272
g1273
I2012
I9
I1
tp1359
F96.5
s(g649
g650
I2012
I10
I1
tp1360
I-1
s(g751
g752
I2012
I4
I1
tp1361
I-1
s(g344
g345
I2012
I3
I1
tp1362
F97
s(g167
g168
I2012
I10
I1
tp1363
F86.5
s(g173
g174
I2012
I12
I1
tp1364
I-1
s(g581
g582
I2012
I5
I1
tp1365
I-1
s(g120
g121
I2012
I5
I1
tp1366
F68.75
s(g1017
g1018
I2012
I1
I1
tp1367
I-1
s(g798
g799
I2012
I3
I1
tp1368
F35
s(g295
g296
I2012
I6
I1
tp1369
F71
s(g222
g223
I2012
I4
I1
tp1370
F63.75
s(g846
g847
I2012
I6
I1
tp1371
I-1
s(g108
g109
I2012
I2
I1
tp1372
I-1
s(g552
g553
I2012
I4
I1
tp1373
I-1
s(g309
g310
I2012
I1
I1
tp1374
I-1
s(g926
g927
I2012
I9
I1
tp1375
F71.5
s(S'Newcastle'
p1376
S'United Kingdom'
p1377
I2012
I10
I1
tp1378
F67.5
s(g155
g156
I2012
I8
I1
tp1379
F88.25
s(g1204
g1205
I2012
I8
I1
tp1380
F98.25
s(g751
g752
I2012
I11
I1
tp1381
I-1
s(g79
g80
I2012
I4
I1
tp1382
F106
s(g282
g283
I2012
I3
I1
tp1383
F103.25
s(g1037
g1038
I2012
I10
I1
tp1384
I-1
s(g463
g794
I2012
I8
I1
tp1385
I-1
s(g1299
g1300
I2012
I3
I1
tp1386
F61.25
s(g523
g663
I2012
I4
I1
tp1387
I-1
s(g1136
g1137
I2012
I2
I1
tp1388
F57.5
s(g463
g464
I2012
I7
I1
tp1389
F122.75
s(g1216
g1217
I2012
I5
I1
tp1390
F115.5
s(g497
g787
I2012
I11
I1
tp1391
I-1
s(g386
g387
I2012
I3
I1
tp1392
F28.75
s(g578
g579
I2012
I9
I1
tp1393
F98
s(g463
g464
I2012
I4
I1
tp1394
F88
s(g184
g185
I2012
I1
I1
tp1395
F87.75
s(g961
g962
I2012
I1
I1
tp1396
F72.5
s(g371
g541
I2012
I11
I1
tp1397
I-1
s(g599
g600
I2012
I7
I1
tp1398
I-1
s(S'Bamako'
p1399
S'Mali'
p1400
I2012
I1
I1
tp1401
F92.25
s(g1151
g1152
I2012
I10
I1
tp1402
F101.5
s(g523
g663
I2012
I11
I1
tp1403
I-1
s(g484
g485
I2012
I7
I1
tp1404
F81
s(g695
g696
I2012
I6
I1
tp1405
F91.25
s(g225
g226
I2012
I9
I1
tp1406
I-1
s(g497
g498
I2012
I10
I1
tp1407
I-1
s(g196
g197
I2012
I12
I1
tp1408
I-1
s(g890
g891
I2012
I6
I1
tp1409
I-1
s(S'Dublin'
p1410
S'Republic of Ireland'
p1411
I2012
I12
I1
tp1412
I-1
s(g606
g607
I2012
I1
I1
tp1413
F54
s(g222
g633
I2012
I10
I1
tp1414
F68.5
s(g52
g53
I2012
I9
I1
tp1415
F97.25
s(g493
g494
I2012
I4
I1
tp1416
F102
s(g1241
g1242
I2012
I8
I1
tp1417
F77.5
s(g497
g787
I2012
I4
I1
tp1418
I-1
s(g133
g415
I2012
I2
I1
tp1419
I-1
s(g1247
g1248
I2012
I5
I1
tp1420
I-1
s(g578
g579
I2012
I11
I1
tp1421
I-1
s(g881
g882
I2012
I12
I1
tp1422
F28
s(g67
g68
I2012
I4
I1
tp1423
I-1
s(S'Puebla'
p1424
S'Mexico'
p1425
I2012
I11
I1
tp1426
F72
s(g507
g508
I2012
I6
I1
tp1427
F104.25
s(g96
g97
I2012
I12
I1
tp1428
I-1
s(g1082
g1083
I2012
I9
I1
tp1429
F95.5
s(g992
g993
I2012
I1
I1
tp1430
I-1
s(g167
g168
I2012
I3
I1
tp1431
F67.25
s(g519
g520
I2012
I6
I1
tp1432
I-1
s(g998
g999
I2012
I9
I1
tp1433
I-1
s(g330
g331
I2012
I2
I1
tp1434
F74
s(g1096
g1097
I2012
I10
I1
tp1435
I-1
s(g984
g985
I2012
I2
I1
tp1436
F69.5
s(g105
g106
I2012
I6
I1
tp1437
F114.25
s(g641
g642
I2012
I12
I1
tp1438
F61.5
s(g437
g438
I2012
I6
I1
tp1439
I-1
s(g535
g536
I2012
I11
I1
tp1440
F57.5
s(g725
g726
I2012
I3
I1
tp1441
F84.5
s(g250
g251
I2012
I4
I1
tp1442
I-1
s(g1272
g1273
I2012
I7
I1
tp1443
F97
s(g649
g650
I2012
I12
I1
tp1444
I-1
s(g344
g345
I2012
I1
I1
tp1445
F95.5
s(S'Lusaka'
p1446
S'Zambia'
p1447
I2012
I2
I1
tp1448
F83.25
s(g490
g491
I2012
I11
I1
tp1449
F62.5
s(g120
g121
I2012
I7
I1
tp1450
F90.25
s(g1017
g1018
I2012
I3
I1
tp1451
I-1
s(g203
g204
I2012
I5
I1
tp1452
F90
s(g998
g1307
I2012
I12
I1
tp1453
I-1
s(g309
g310
I2012
I12
I1
tp1454
I-1
s(g846
g847
I2012
I4
I1
tp1455
I-1
s(g441
g442
I2012
I1
I1
tp1456
F91.75
s(g130
g131
I2012
I6
I1
tp1457
F74.5
s(g552
g553
I2012
I6
I1
tp1458
I-1
s(g1376
g1377
I2012
I8
I1
tp1459
F77.5
s(g155
g156
I2012
I10
I1
tp1460
F57.5
s(g954
g955
I2012
I10
I1
tp1461
I-1
s(S'Portsmouth'
p1462
S'United Kingdom'
p1463
I2012
I12
I1
tp1464
F46.75
s(g274
g275
I2012
I8
I1
tp1465
F87.5
s(g1204
g1205
I2012
I6
I1
tp1466
F99.25
s(g751
g752
I2012
I9
I1
tp1467
I-1
s(g665
g666
I2012
I6
I1
tp1468
I-1
s(g399
g400
I2012
I3
I1
tp1469
F55.5
s(g1037
g1038
I2012
I12
I1
tp1470
I-1
s(g1299
g1300
I2012
I5
I1
tp1471
F85
s(g371
g541
I2012
I2
I1
tp1472
I-1
s(g846
g847
I2012
I11
I1
tp1473
I-1
s(S'Istanbul'
p1474
S'Turkey'
p1475
I2012
I3
I1
tp1476
F52.25
s(g497
g498
I2012
I9
I1
tp1477
I-1
s(g222
g223
I2012
I11
I1
tp1478
F59.5
s(g120
g411
I2012
I3
I1
tp1479
I-1
s(g1216
g1217
I2012
I7
I1
tp1480
F113.5
s(g386
g387
I2012
I1
I1
tp1481
F21.25
s(g130
g131
I2012
I12
I1
tp1482
F46.5
s(S'Tokyo'
p1483
S'Japan'
p1484
I2012
I3
I1
tp1485
F58.25
s(g828
g829
I2012
I11
I1
tp1486
I-1
s(g79
g80
I2012
I3
I1
tp1487
F95.5
s(S'Shenyang'
p1488
S'China'
p1489
I2012
I10
I1
tp1490
F70.75
s(g399
g400
I2012
I2
I1
tp1491
F50
s(g1226
g1227
I2012
I12
I1
tp1492
F104.75
s(g599
g600
I2012
I5
I1
tp1493
I-1
s(g1399
g1400
I2012
I3
I1
tp1494
F106.75
s(g1151
g1152
I2012
I4
I1
tp1495
F88.75
s(g778
g779
I2012
I1
I1
tp1496
F88
s(g316
g317
I2012
I5
I1
tp1497
F104.25
s(g971
g972
I2012
I9
I1
tp1498
F96.5
s(g1158
g1159
I2012
I3
I1
tp1499
I-1
s(g76
g77
I2012
I12
I1
tp1500
F55.25
s(g890
g891
I2012
I4
I1
tp1501
I-1
s(g1410
g1411
I2012
I10
I1
tp1502
I-1
s(S'Los Angeles'
p1503
S'United States'
p1504
I2012
I3
I1
tp1505
I-1
s(S'Glasgow'
p1506
S'United Kingdom'
p1507
I2012
I2
I1
tp1508
F46
s(g493
g494
I2012
I2
I1
tp1509
F104
s(g1241
g1242
I2012
I6
I1
tp1510
F66.75
s(g497
g787
I2012
I6
I1
tp1511
I-1
s(g1247
g1248
I2012
I7
I1
tp1512
I-1
s(g114
g179
I2012
I3
I1
tp1513
F66.5
s(g1424
g1425
I2012
I9
I1
tp1514
F79.5
s(g41
g44
I2012
I7
I1
tp1515
I-1
s(g961
g962
I2012
I12
I1
tp1516
I-1
s(g510
g511
I2012
I1
I1
tp1517
F39.25
s(g1082
g1083
I2012
I11
I1
tp1518
F104
s(g164
g885
I2012
I2
I1
tp1519
I-1
s(g625
g626
I2012
I12
I1
tp1520
F86.75
s(g1343
g1344
I2012
I8
I1
tp1521
F83.5
s(g437
g438
I2012
I4
I1
tp1522
I-1
s(g890
g891
I2012
I11
I1
tp1523
I-1
s(g606
g674
I2012
I5
I1
tp1524
F65
s(g330
g331
I2012
I4
I1
tp1525
F85.75
s(g239
g240
I2012
I12
I1
tp1526
F47
s(g1096
g1097
I2012
I8
I1
tp1527
I-1
s(g208
g209
I2012
I1
I1
tp1528
F36.25
s(g556
g557
I2012
I11
I1
tp1529
F56.25
s(g535
g536
I2012
I5
I1
tp1530
F69
s(g725
g726
I2012
I5
I1
tp1531
F86.5
s(g250
g251
I2012
I6
I1
tp1532
I-1
s(g1272
g1273
I2012
I5
I1
tp1533
I-1
s(g344
g345
I2012
I7
I1
tp1534
F93.75
s(g992
g993
I2012
I12
I1
tp1535
I-1
s(g351
g543
I2012
I3
I1
tp1536
I-1
s(g1446
g1447
I2012
I4
I1
tp1537
F82.75
s(g490
g491
I2012
I9
I1
tp1538
I-1
s(g1017
g1018
I2012
I5
I1
tp1539
I-1
s(g798
g799
I2012
I7
I1
tp1540
F84.75
s(g295
g296
I2012
I2
I1
tp1541
F40
s(g309
g310
I2012
I10
I1
tp1542
I-1
s(g441
g442
I2012
I3
I1
tp1543
F100.5
s(g835
g836
I2012
I11
I1
tp1544
I-1
s(g832
g833
I2012
I2
I1
tp1545
F55.75
s(g1462
g1463
I2012
I10
I1
tp1546
F71.5
s(g274
g275
I2012
I10
I1
tp1547
F72.25
s(g1204
g1205
I2012
I4
I1
tp1548
F101
s(g463
g794
I2012
I6
I1
tp1549
I-1
s(g523
g663
I2012
I1
I1
tp1550
I-1
s(g665
g666
I2012
I4
I1
tp1551
I-1
s(S'Campinas'
p1552
S'Brazil'
p1553
I2012
I11
I1
tp1554
I-1
s(g1299
g1300
I2012
I7
I1
tp1555
F109.5
s(g133
g415
I2012
I1
I1
tp1556
I-1
s(g846
g847
I2012
I9
I1
tp1557
I-1
s(g698
g699
I2012
I2
I1
tp1558
I-1
s(g926
g927
I2012
I2
I1
tp1559
F42.5
s(g954
g955
I2012
I4
I1
tp1560
I-1
s(g1474
g1475
I2012
I1
I1
tp1561
F55
s(g463
g464
I2012
I3
I1
tp1562
F79.75
s(g490
g491
I2012
I5
I1
tp1563
F68.5
s(S'Oran'
p1564
S'Algeria'
p1565
I2012
I11
I1
tp1566
F81.75
s(g1216
g1217
I2012
I1
I1
tp1567
F83
s(g386
g387
I2012
I7
I1
tp1568
F94.75
s(g1483
g1484
I2012
I5
I1
tp1569
F80.75
s(g828
g829
I2012
I9
I1
tp1570
I-1
s(g1037
g1038
I2012
I1
I1
tp1571
I-1
s(g407
g408
I2012
I1
I1
tp1572
I-1
s(g1488
g1489
I2012
I8
I1
tp1573
F91.5
s(g399
g400
I2012
I4
I1
tp1574
F73
s(g1226
g1227
I2012
I2
I1
tp1575
F99.5
s(g599
g600
I2012
I11
I1
tp1576
I-1
s(g1399
g1400
I2012
I5
I1
tp1577
F109.25
s(g1151
g1152
I2012
I6
I1
tp1578
F104.5
s(g778
g779
I2012
I7
I1
tp1579
F69.5
s(g606
g607
I2012
I12
I1
tp1580
F57.75
s(g55
g771
I2012
I12
I1
tp1581
F47.25
s(g316
g317
I2012
I3
I1
tp1582
F101
s(g695
g696
I2012
I2
I1
tp1583
F60
s(g971
g972
I2012
I11
I1
tp1584
F79
s(g196
g197
I2012
I8
I1
tp1585
I-1
s(g1158
g1159
I2012
I1
I1
tp1586
I-1
s(g76
g77
I2012
I10
I1
tp1587
F76.75
s(g76
g77
I2012
I4
I1
tp1588
F64.75
s(g1503
g1504
I2012
I1
I1
tp1589
F102.5
s(g1506
g1507
I2012
I4
I1
tp1590
F55.5
s(g1241
g1242
I2012
I4
I1
tp1591
F58
s(S'Brussels-Capital Region'
p1592
S'Belgium'
p1593
I2012
I2
I1
tp1594
I-1
s(g1247
g1248
I2012
I1
I1
tp1595
I-1
s(g114
g179
I2012
I1
I1
tp1596
F62
s(g507
g508
I2012
I2
I1
tp1597
F100.75
s(g538
g539
I2012
I6
I1
tp1598
I-1
s(g961
g962
I2012
I10
I1
tp1599
I-1
s(g203
g204
I2012
I3
I1
tp1600
F96.5
s(g625
g626
I2012
I2
I1
tp1601
F90.5
s(g519
g520
I2012
I2
I1
tp1602
I-1
s(g742
g743
I2012
I7
I1
tp1603
I-1
s(g1343
g1344
I2012
I10
I1
tp1604
F63.25
s(g971
g972
I2012
I4
I1
tp1605
F71.5
s(g114
g115
I2012
I1
I1
tp1606
I-1
s(g890
g891
I2012
I9
I1
tp1607
I-1
s(g330
g331
I2012
I6
I1
tp1608
F84.25
s(g437
g438
I2012
I2
I1
tp1609
I-1
s(g535
g536
I2012
I7
I1
tp1610
F81
s(g538
g539
I2012
I9
I1
tp1611
I-1
s(g1272
g1273
I2012
I3
I1
tp1612
I-1
s(g344
g345
I2012
I5
I1
tp1613
F94
s(g670
g671
I2012
I11
I1
tp1614
F81
s(g992
g993
I2012
I10
I1
tp1615
I-1
s(g351
g543
I2012
I1
I1
tp1616
I-1
s(g1446
g1447
I2012
I6
I1
tp1617
F79.75
s(g38
g39
I2012
I12
I1
tp1618
F78
s(g1017
g1018
I2012
I7
I1
tp1619
I-1
s(g55
g771
I2012
I6
I1
tp1620
F81.25
s(g998
g1307
I2012
I8
I1
tp1621
I-1
s(g998
g999
I2012
I2
I1
tp1622
I-1
s(g309
g310
I2012
I8
I1
tp1623
I-1
s(g441
g442
I2012
I5
I1
tp1624
F114
s(g552
g553
I2012
I2
I1
tp1625
I-1
s(g173
g174
I2012
I5
I1
tp1626
F105.25
s(g1376
g1377
I2012
I12
I1
tp1627
F42.25
s(g835
g836
I2012
I9
I1
tp1628
I-1
s(g114
g179
I2012
I11
I1
tp1629
F77.5
s(g581
g582
I2012
I12
I1
tp1630
I-1
s(S'Budapest'
p1631
S'Hungary'
p1632
I2012
I8
I1
tp1633
F90.5
s(g1462
g1463
I2012
I8
I1
tp1634
F79.75
s(g1204
g1205
I2012
I2
I1
tp1635
F99.5
s(g463
g794
I2012
I4
I1
tp1636
I-1
s(g665
g666
I2012
I10
I1
tp1637
F100.5
s(g1017
g1018
I2012
I8
I1
tp1638
I-1
s(g1552
g1553
I2012
I9
I1
tp1639
I-1
s(g1299
g1300
I2012
I9
I1
tp1640
F103.25
s(S'S\xc3\xa3o Paulo'
p1641
S'Brazil'
p1642
I2012
I10
I1
tp1643
I-1
s(g222
g633
I2012
I6
I1
tp1644
F82.75
s(g1474
g1475
I2012
I7
I1
tp1645
F95.5
s(g463
g464
I2012
I1
I1
tp1646
F67.25
s(g1216
g1217
I2012
I3
I1
tp1647
F98
s(g386
g387
I2012
I5
I1
tp1648
F72.25
s(g1483
g1484
I2012
I7
I1
tp1649
F95.25
s(g184
g185
I2012
I11
I1
tp1650
I-1
s(g1037
g1038
I2012
I3
I1
tp1651
I-1
s(g399
g400
I2012
I6
I1
tp1652
F93.75
s(g599
g600
I2012
I9
I1
tp1653
I-1
s(g1399
g1400
I2012
I7
I1
tp1654
F100.5
s(g778
g779
I2012
I5
I1
tp1655
F79.75
s(g316
g317
I2012
I1
I1
tp1656
F99.25
s(g695
g696
I2012
I12
I1
tp1657
F75.25
s(g463
g794
I2012
I2
I1
tp1658
I-1
s(g596
g597
I2012
I12
I1
tp1659
F89.25
s(g196
g197
I2012
I10
I1
tp1660
I-1
s(g1158
g1159
I2012
I7
I1
tp1661
I-1
s(g76
g77
I2012
I8
I1
tp1662
F91.25
s(g1410
g1411
I2012
I6
I1
tp1663
I-1
s(g1503
g1504
I2012
I7
I1
tp1664
F97.25
s(g1506
g1507
I2012
I6
I1
tp1665
F72
s(g1216
g1217
I2012
I12
I1
tp1666
F91.25
s(g1241
g1242
I2012
I2
I1
tp1667
F46.5
s(g497
g787
I2012
I2
I1
tp1668
I-1
s(g1247
g1248
I2012
I3
I1
tp1669
I-1
s(g954
g955
I2012
I9
I1
tp1670
I-1
s(g881
g882
I2012
I2
I1
tp1671
F3.25
s(g961
g962
I2012
I8
I1
tp1672
F94
s(g316
g317
I2012
I10
I1
tp1673
F102.5
s(g510
g511
I2012
I5
I1
tp1674
F75.75
s(g395
g396
I2012
I6
I1
tp1675
F74
s(g164
g885
I2012
I6
I1
tp1676
I-1
s(g1343
g1344
I2012
I4
I1
tp1677
F54.75
s(g971
g972
I2012
I6
I1
tp1678
F88
s(g32
g33
I2012
I1
I1
tp1679
F31.75
s(S'Thessaloniki'
p1680
S'Greece'
p1681
I2012
I2
I1
tp1682
F49.5
s(g1096
g1097
I2012
I12
I1
tp1683
I-1
s(g984
g985
I2012
I12
I1
tp1684
F81.5
s(g641
g642
I2012
I2
I1
tp1685
F57.75
s(g1247
g1248
I2012
I12
I1
tp1686
I-1
s(g535
g536
I2012
I1
I1
tp1687
F41.75
s(g538
g539
I2012
I7
I1
tp1688
I-1
s(g1272
g1273
I2012
I1
I1
tp1689
I-1
s(S'Santiago'
p1690
S'Chile'
p1691
I2012
I5
I1
tp1692
F70.5
s(g649
g650
I2012
I2
I1
tp1693
I-1
s(g992
g993
I2012
I8
I1
tp1694
I-1
s(g351
g543
I2012
I7
I1
tp1695
I-1
s(g1446
g1447
I2012
I8
I1
tp1696
F76.75
s(g96
g97
I2012
I2
I1
tp1697
I-1
s(g203
g204
I2012
I11
I1
tp1698
F90.5
s(g998
g1307
I2012
I6
I1
tp1699
I-1
s(g222
g223
I2012
I12
I1
tp1700
F45.75
s(g441
g442
I2012
I7
I1
tp1701
F103.5
s(g1096
g1097
I2012
I3
I1
tp1702
I-1
s(g778
g779
I2012
I12
I1
tp1703
F86.5
s(g998
g1307
I2012
I9
I1
tp1704
I-1
s(g835
g836
I2012
I7
I1
tp1705
I-1
s(g588
g589
I2012
I6
I1
tp1706
F79
s(g1631
g1632
I2012
I10
I1
tp1707
F73.5
s(g1462
g1463
I2012
I6
I1
tp1708
F75.25
s(g463
g794
I2012
I10
I1
tp1709
I-1
s(S'Zurich'
p1710
S'Switzerland'
p1711
I2012
I2
I1
tp1712
F34.75
s(g665
g666
I2012
I8
I1
tp1713
I-1
s(g581
g582
I2012
I2
I1
tp1714
I-1
s(g698
g699
I2012
I7
I1
tp1715
I-1
s(g1017
g1018
I2012
I10
I1
tp1716
I-1
s(g1299
g1300
I2012
I11
I1
tp1717
F70.25
s(g1641
g1642
I2012
I8
I1
tp1718
I-1
s(g41
g44
I2012
I3
I1
tp1719
I-1
s(g926
g927
I2012
I6
I1
tp1720
F72
s(g1474
g1475
I2012
I5
I1
tp1721
F75.75
s(g8
g9
I2012
I10
I1
tp1722
F58
s(g698
g699
I2012
I9
I1
tp1723
I-1
s(g1483
g1484
I2012
I9
I1
tp1724
F101.25
s(g184
g185
I2012
I9
I1
tp1725
I-1
s(g1037
g1038
I2012
I5
I1
tp1726
I-1
s(g1488
g1489
I2012
I12
I1
tp1727
F33.5
s(g1226
g1227
I2012
I6
I1
tp1728
F102.5
s(g1399
g1400
I2012
I9
I1
tp1729
F98.25
s(g1151
g1152
I2012
I2
I1
tp1730
F74.5
s(g778
g779
I2012
I11
I1
tp1731
F84.25
s(g497
g498
I2012
I11
I1
tp1732
I-1
s(g407
g408
I2012
I7
I1
tp1733
I-1
s(g515
g516
I2012
I7
I1
tp1734
F82.25
s(g1158
g1159
I2012
I5
I1
tp1735
I-1
s(g1136
g1137
I2012
I5
I1
tp1736
F89.75
s(g1410
g1411
I2012
I4
I1
tp1737
I-1
s(g1503
g1504
I2012
I5
I1
tp1738
F105.25
s(g5
g6
I2012
I4
I1
tp1739
F89.25
s(g1506
g1507
I2012
I8
I1
tp1740
F76
s(g497
g787
I2012
I12
I1
tp1741
I-1
s(g1592
g1593
I2012
I6
I1
tp1742
I-1
s(g578
g579
I2012
I3
I1
tp1743
I-1
s(g828
g829
I2012
I2
I1
tp1744
I-1
s(g222
g223
I2012
I1
I1
tp1745
F29.75
s(g1424
g1425
I2012
I3
I1
tp1746
F75.5
s(g961
g962
I2012
I6
I1
tp1747
F87.75
s(g114
g115
I2012
I12
I1
tp1748
I-1
s(g510
g511
I2012
I7
I1
tp1749
F91.75
s(S'Rabat'
p1750
S'Morocco'
p1751
I2012
I7
I1
tp1752
F94
s(g371
g541
I2012
I3
I1
tp1753
I-1
s(g164
g885
I2012
I4
I1
tp1754
I-1
s(g625
g626
I2012
I6
I1
tp1755
F80.5
s(g316
g317
I2012
I12
I1
tp1756
F99.25
s(g1343
g1344
I2012
I6
I1
tp1757
F71.75
s(g170
g171
I2012
I2
I1
tp1758
F15.5
s(g1158
g1159
I2012
I10
I1
tp1759
I-1
s(g1680
g1681
I2012
I4
I1
tp1760
F71
s(g984
g985
I2012
I10
I1
tp1761
F95.75
s(g641
g642
I2012
I4
I1
tp1762
F71.25
s(g535
g536
I2012
I3
I1
tp1763
F52.5
s(g725
g726
I2012
I11
I1
tp1764
F84.25
s(g1690
g1691
I2012
I7
I1
tp1765
F59.5
s(g649
g650
I2012
I4
I1
tp1766
I-1
s(g1082
g1083
I2012
I2
I1
tp1767
F104.5
s(g992
g993
I2012
I6
I1
tp1768
I-1
s(g351
g543
I2012
I5
I1
tp1769
I-1
s(g1446
g1447
I2012
I10
I1
tp1770
F93.5
s(g55
g771
I2012
I2
I1
tp1771
F33.25
s(g1483
g1484
I2012
I1
I1
tp1772
F53.5
s(g295
g296
I2012
I12
I1
tp1773
F46.5
s(g998
g999
I2012
I6
I1
tp1774
I-1
s(g309
g310
I2012
I4
I1
tp1775
I-1
s(g196
g197
I2012
I4
I1
tp1776
I-1
s(g828
g829
I2012
I5
I1
tp1777
I-1
s(g1096
g1097
I2012
I1
I1
tp1778
I-1
s(g835
g836
I2012
I5
I1
tp1779
I-1
s(g832
g833
I2012
I4
I1
tp1780
F69
s(g1272
g1273
I2012
I12
I1
tp1781
F100
s(g556
g557
I2012
I7
I1
tp1782
F88.25
s(g1631
g1632
I2012
I12
I1
tp1783
F47.5
s(g1462
g1463
I2012
I4
I1
tp1784
F60.25
s(S'Chennai'
p1785
S'India'
p1786
I2012
I10
I1
tp1787
F105.25
s(g751
g752
I2012
I1
I1
tp1788
I-1
s(g1017
g1018
I2012
I12
I1
tp1789
I-1
s(g798
g799
I2012
I11
I1
tp1790
F50
s(g846
g847
I2012
I3
I1
tp1791
I-1
s(g64
g65
I2012
I2
I1
tp1792
I-1
s(g14
g15
I2012
I4
I1
tp1793
F103.25
s(g926
g927
I2012
I4
I1
tp1794
F57.5
s(g1474
g1475
I2012
I11
I1
tp1795
F71.75
s(g35
g36
I2012
I12
I1
tp1796
I-1
s(g998
g1307
I2012
I2
I1
tp1797
I-1
s(g698
g699
I2012
I11
I1
tp1798
I-1
s(g1483
g1484
I2012
I11
I1
tp1799
F79.75
s(g1037
g1038
I2012
I7
I1
tp1800
I-1
s(g742
g743
I2012
I11
I1
tp1801
I-1
s(g1488
g1489
I2012
I2
I1
tp1802
I-1
s(g1226
g1227
I2012
I4
I1
tp1803
F106.75
s(g1399
g1400
I2012
I11
I1
tp1804
F101
s(g247
g248
I2012
I8
I1
tp1805
F95.75
s(g778
g779
I2012
I9
I1
tp1806
F68
s(g695
g696
I2012
I8
I1
tp1807
F105
s(g596
g597
I2012
I8
I1
tp1808
F69.25
s(g222
g223
I2012
I6
I1
tp1809
F82.75
s(g515
g516
I2012
I5
I1
tp1810
F57.5
s(g1136
g1137
I2012
I7
I1
tp1811
F106.75
s(g1410
g1411
I2012
I2
I1
tp1812
I-1
s(g1503
g1504
I2012
I11
I1
tp1813
F101.5
s(g316
g317
I2012
I7
I1
tp1814
F93.75
s(g1506
g1507
I2012
I10
I1
tp1815
F64
s(g1216
g1217
I2012
I8
I1
tp1816
F104.75
s(g86
g87
I2012
I7
I1
tp1817
F109
s(g1592
g1593
I2012
I4
I1
tp1818
I-1
s(g578
g579
I2012
I5
I1
tp1819
I-1
s(g184
g185
I2012
I4
I1
tp1820
I-1
s(g881
g882
I2012
I6
I1
tp1821
F75.5
s(g1503
VCA
p1822
I2012
I9
I1
tp1823
F93.5
s(g1424
g1425
I2012
I1
I1
tp1824
F70.75
s(g961
g962
I2012
I4
I1
tp1825
F74.25
s(g1226
g1227
I2012
I11
I1
tp1826
F103.5
s(g1750
g1751
I2012
I5
I1
tp1827
F73
s(g164
g885
I2012
I10
I1
tp1828
I-1
s(g625
g626
I2012
I4
I1
tp1829
F86.5
s(g79
g80
I2012
I1
I1
tp1830
F83.5
s(g484
g485
I2012
I10
I1
tp1831
F86.25
s(g120
g411
I2012
I6
I1
tp1832
I-1
s(g971
g972
I2012
I2
I1
tp1833
F62
s(g1158
g1159
I2012
I8
I1
tp1834
I-1
s(g890
g891
I2012
I3
I1
tp1835
I-1
s(g1680
g1681
I2012
I6
I1
tp1836
F88.75
s(g984
g985
I2012
I8
I1
tp1837
F102.5
s(g641
g642
I2012
I6
I1
tp1838
F85
s(g1247
g1248
I2012
I8
I1
tp1839
I-1
s(g137
g138
I2012
I10
I1
tp1840
I-1
s(g463
g464
I2012
I8
I1
tp1841
F118.25
s(g881
g882
I2012
I9
I1
tp1842
F70
s(g538
g539
I2012
I3
I1
tp1843
F99
s(g1690
g1691
I2012
I1
I1
tp1844
F89
s(g649
g650
I2012
I6
I1
tp1845
I-1
s(g1082
g1083
I2012
I4
I1
tp1846
F104.75
s(g149
g150
I2012
I3
I1
tp1847
F37
s(g992
g993
I2012
I4
I1
tp1848
I-1
s(g670
g671
I2012
I4
I1
tp1849
F86
s(g1446
g1447
I2012
I12
I1
tp1850
F88
s(g83
g84
I2012
I6
I1
tp1851
I-1
s(g392
g393
I2012
I1
I1
tp1852
F29.5
s(g295
g296
I2012
I10
I1
tp1853
F71.75
s(g998
g999
I2012
I4
I1
tp1854
I-1
s(g222
g223
I2012
I8
I1
tp1855
F96.25
s(g1096
g1097
I2012
I7
I1
tp1856
I-1
s(g1564
g1565
I2012
I1
I1
tp1857
F66.75
s(g984
g985
I2012
I7
I1
tp1858
F100.25
s(g1376
g1377
I2012
I6
I1
tp1859
F66.75
s(g835
g836
I2012
I3
I1
tp1860
I-1
s(g832
g833
I2012
I10
I1
tp1861
F83.25
s(g1272
g1273
I2012
I10
I1
tp1862
I-1
s(g1462
g1463
I2012
I2
I1
tp1863
F45
s(g1785
g1786
I2012
I8
I1
tp1864
F108.25
s(g751
g752
I2012
I7
I1
tp1865
I-1
s(g133
g134
I2012
I10
I1
tp1866
F79.75
s(g1710
g1711
I2012
I6
I1
tp1867
F71.75
s(g665
g666
I2012
I12
I1
tp1868
F101
s(g490
g491
I2012
I6
I1
tp1869
F71
s(g1552
g1553
I2012
I3
I1
tp1870
I-1
s(g846
g847
I2012
I1
I1
tp1871
I-1
s(g214
g215
I2012
I9
I1
tp1872
I-1
s(g14
g15
I2012
I6
I1
tp1873
F104.75
s(g926
g927
I2012
I10
I1
tp1874
F70
s(g1474
g1475
I2012
I9
I1
tp1875
F92
s(g606
g674
I2012
I2
I1
tp1876
F50.5
s(g688
g689
I2012
I8
I1
tp1877
I-1
s(g1204
g1205
I2012
I11
I1
tp1878
F100.25
s(g954
g955
I2012
I3
I1
tp1879
I-1
s(g79
g80
I2012
I5
I1
tp1880
F111.25
s(g581
g582
I2012
I6
I1
tp1881
I-1
s(g1037
g1038
I2012
I9
I1
tp1882
I-1
s(g778
g779
I2012
I3
I1
tp1883
F92.25
s(g58
g59
I2012
I5
I1
tp1884
F99.25
s(g566
g567
I2012
I3
I1
tp1885
F42
s(g523
g663
I2012
I7
I1
tp1886
I-1
s(g695
g696
I2012
I10
I1
tp1887
F89
s(S'Bras\xc3\xadlia'
p1888
S'Brazil'
p1889
I2012
I2
I1
tp1890
I-1
s(g407
g408
I2012
I3
I1
tp1891
I-1
s(g515
g516
I2012
I3
I1
tp1892
F31
s(g76
g77
I2012
I2
I1
tp1893
F32.25
s(g1503
g1504
I2012
I9
I1
tp1894
F97.5
s(g222
g633
I2012
I8
I1
tp1895
F96.25
s(g670
g671
I2012
I5
I1
tp1896
F88.75
s(g1506
g1507
I2012
I12
I1
tp1897
F39.75
s(g1216
g1217
I2012
I10
I1
tp1898
F107.5
s(g86
g87
I2012
I5
I1
tp1899
F114.75
s(g497
g787
I2012
I8
I1
tp1900
I-1
s(g1592
g1593
I2012
I10
I1
tp1901
I-1
s(g578
g579
I2012
I7
I1
tp1902
F101
s(g828
g829
I2012
I6
I1
tp1903
I-1
s(g1503
g1822
I2012
I11
I1
tp1904
F84.25
s(g1424
g1425
I2012
I7
I1
tp1905
F80.5
s(g961
g962
I2012
I2
I1
tp1906
F68.5
s(g1226
g1227
I2012
I9
I1
tp1907
F99.5
s(g1750
g1751
I2012
I3
I1
tp1908
F71
s(g1151
g1152
I2012
I9
I1
tp1909
F103.5
s(g164
g885
I2012
I8
I1
tp1910
I-1
s(g167
g168
I2012
I1
I1
tp1911
F64.5
s(g484
g485
I2012
I8
I1
tp1912
F78
s(g114
g179
I2012
I7
I1
tp1913
F78.5
s(g971
g972
I2012
I12
I1
tp1914
F70.5
s(g890
g891
I2012
I1
I1
tp1915
I-1
s(g588
g589
I2012
I10
I1
tp1916
F78.5
s(g1680
g1681
I2012
I8
I1
tp1917
F100
s(g1241
g1242
I2012
I11
I1
tp1918
F56.5
s(g1247
g1248
I2012
I10
I1
tp1919
I-1
s(g137
g138
I2012
I8
I1
tp1920
I-1
s(g1641
g1642
I2012
I12
I1
tp1921
I-1
s(g881
g882
I2012
I11
I1
tp1922
F45.25
s(g538
g539
I2012
I1
I1
tp1923
F101.5
s(g1690
g1691
I2012
I3
I1
tp1924
F86.5
s(g1082
g1083
I2012
I6
I1
tp1925
F103.25
s(g149
g150
I2012
I1
I1
tp1926
F33
s(g992
g993
I2012
I2
I1
tp1927
I-1
s(S'Lagos'
p1928
S'Nigeria'
p1929
I2012
I2
I1
tp1930
F103.25
s(g295
g296
I2012
I8
I1
tp1931
F82
s(g998
g999
I2012
I10
I1
tp1932
I-1
s(g222
g223
I2012
I10
I1
tp1933
F68.5
s(g556
g557
I2012
I10
I1
tp1934
F64.25
s(g1096
g1097
I2012
I5
I1
tp1935
I-1
s(g1564
g1565
I2012
I3
I1
tp1936
F70
s(g984
g985
I2012
I5
I1
tp1937
F82.75
s(g1376
g1377
I2012
I4
I1
tp1938
F58
s(g835
g836
I2012
I1
I1
tp1939
I-1
s(g832
g833
I2012
I8
I1
tp1940
F98
s(g1272
g1273
I2012
I8
I1
tp1941
F97.75
s(g751
g752
I2012
I5
I1
tp1942
I-1
s(g1710
g1711
I2012
I4
I1
tp1943
F58.25
s(g1446
g1447
I2012
I1
I1
tp1944
F81.25
s(g490
g491
I2012
I4
I1
tp1945
F57.25
s(g1552
g1553
I2012
I1
I1
tp1946
I-1
s(g295
g296
I2012
I7
I1
tp1947
F78.5
s(g846
g847
I2012
I7
I1
tp1948
I-1
s(g1641
g1642
I2012
I2
I1
tp1949
I-1
s(g208
g209
I2012
I4
I1
tp1950
F64.25
s(g926
g927
I2012
I8
I1
tp1951
F77.5
s(g1376
g1377
I2012
I11
I1
tp1952
F56.5
s(g79
g80
I2012
I2
I1
tp1953
F84.75
s(g35
g36
I2012
I8
I1
tp1954
I-1
s(g222
g633
I2012
I1
I1
tp1955
F29.75
s(g1204
g1205
I2012
I9
I1
tp1956
F98.5
s(g1037
g1038
I2012
I11
I1
tp1957
I-1
s(g1488
g1489
I2012
I6
I1
tp1958
I-1
s(g58
g59
I2012
I7
I1
tp1959
F108
s(g1299
g1300
I2012
I2
I1
tp1960
F54.25
s(g670
g671
I2012
I6
I1
tp1961
F95
s(g523
g663
I2012
I5
I1
tp1962
I-1
s(g222
g223
I2012
I9
I1
tp1963
F93
s(g596
g597
I2012
I4
I1
tp1964
F86.75
s(g515
g516
I2012
I1
I1
tp1965
F26.5
s(g1136
g1137
I2012
I3
I1
tp1966
F68
s(g1216
g1217
I2012
I4
I1
tp1967
F108.5
s(g86
g87
I2012
I3
I1
tp1968
F106.25
s(g497
g787
I2012
I10
I1
tp1969
I-1
s(g1592
g1593
I2012
I8
I1
tp1970
I-1
s(g828
g829
I2012
I4
I1
tp1971
I-1
s(g1503
g1822
I2012
I5
I1
tp1972
F81.25
s(g1424
g1425
I2012
I5
I1
tp1973
F80.75
s(g1750
g1751
I2012
I1
I1
tp1974
F68.75
s(g1151
g1152
I2012
I11
I1
tp1975
F90.5
s(g316
g317
I2012
I6
I1
tp1976
F96.5
s(g73
g74
I2012
I8
I1
tp1977
F94.25
s(g1136
g1137
I2012
I8
I1
tp1978
F114.5
s(g1158
g1159
I2012
I12
I1
tp1979
I-1
s(g890
g891
I2012
I7
I1
tp1980
I-1
s(g1680
g1681
I2012
I10
I1
tp1981
F85.25
s(g1506
g1507
I2012
I1
I1
tp1982
F45.5
s(g225
g226
I2012
I8
I1
tp1983
I-1
s(g1241
g1242
I2012
I9
I1
tp1984
F72.25
s(g556
g557
I2012
I2
I1
tp1985
F27.75
s(g247
g248
I2012
I3
I1
tp1986
F100.5
s(g1247
g1248
I2012
I4
I1
tp1987
I-1
s(g1424
g1425
I2012
I10
I1
tp1988
F76.25
s(g798
g799
I2012
I6
I1
tp1989
F81.25
s(g1082
g1083
I2012
I8
I1
tp1990
F99.5
s(g149
g150
I2012
I7
I1
tp1991
F84.25
s(g278
g279
I2012
I11
I1
tp1992
F53.5
s(g998
g999
I2012
I8
I1
tp1993
I-1
s(g1096
g1097
I2012
I11
I1
tp1994
I-1
s(g1564
g1565
I2012
I5
I1
tp1995
F77.5
s(g236
g237
I2012
I7
I1
tp1996
F63.75
s(g984
g985
I2012
I3
I1
tp1997
F72.75
s(g538
g539
I2012
I12
I1
tp1998
I-1
s(g725
g726
I2012
I7
I1
tp1999
F86
s(g1272
g1273
I2012
I6
I1
tp2000
I-1
s(g1631
g1632
I2012
I2
I1
tp2001
F31.5
s(g247
g248
I2012
I10
I1
tp2002
F97
s(g1785
g1786
I2012
I12
I1
tp2003
F99
s(g1710
g1711
I2012
I10
I1
tp2004
F70
s(g1446
g1447
I2012
I3
I1
tp2005
F83.25
s(g490
g491
I2012
I10
I1
tp2006
F71.75
s(g1017
g1018
I2012
I2
I1
tp2007
I-1
s(g1552
g1553
I2012
I7
I1
tp2008
I-1
s(g295
g296
I2012
I5
I1
tp2009
F67.5
s(g846
g847
I2012
I5
I1
tp2010
I-1
s(g114
g179
I2012
I10
I1
tp2011
F84.5
s(g14
g15
I2012
I2
I1
tp2012
F101.25
s(g698
g699
I2012
I4
I1
tp2013
I-1
s(g1376
g1377
I2012
I9
I1
tp2014
F72.25
s(g581
g582
I2012
I11
I1
tp2015
I-1
s(g35
g36
I2012
I10
I1
tp2016
I-1
s(g688
g689
I2012
I4
I1
tp2017
I-1
s(g1204
g1205
I2012
I7
I1
tp2018
F98.25
s(g596
g597
I2012
I10
I1
tp2019
F86.75
s(g1488
g1489
I2012
I4
I1
tp2020
F49
s(g58
g59
I2012
I1
I1
tp2021
F69.5
s(g1299
g1300
I2012
I4
I1
tp2022
F73.5
s(g566
g567
I2012
I7
I1
tp2023
F98.25
s(g606
g607
I2012
I10
I1
tp2024
F74.25
s(g798
g799
I2012
I5
I1
tp2025
F74
s(g1888
g1889
I2012
I6
I1
tp2026
I-1
s(g247
g248
I2012
I1
I1
tp2027
F102.5
s(g596
g597
I2012
I6
I1
tp2028
F68.25
s(g1474
g1475
I2012
I2
I1
tp2029
F49.25
s(g1136
g1137
I2012
I1
I1
tp2030
F54.75
s(g313
g314
I2012
I3
I1
tp2031
I-1
s(g1216
g1217
I2012
I6
I1
tp2032
F118
s(g86
g87
I2012
I1
I1
tp2033
F93.25
s(g167
g168
I2012
I4
I1
tp2034
F73
s(g1483
g1484
I2012
I2
I1
tp2035
F54.25
s(g828
g829
I2012
I10
I1
tp2036
I-1
s(g1503
g1822
I2012
I7
I1
tp2037
F89
s(g295
g296
I2012
I4
I1
tp2038
F57.25
s(g538
g539
I2012
I4
I1
tp2039
I-1
s(g1488
g1489
I2012
I11
I1
tp2040
F50
s(g1399
g1400
I2012
I2
I1
tp2041
F101.75
s(g1151
g1152
I2012
I5
I1
tp2042
F90.25
s(g164
g885
I2012
I12
I1
tp2043
I-1
s(g484
g485
I2012
I4
I1
tp2044
F87.25
s(g742
g743
I2012
I5
I1
tp2045
I-1
s(g971
g972
I2012
I8
I1
tp2046
F98.75
s(g515
g516
I2012
I12
I1
tp2047
F36.25
s(g114
g115
I2012
I3
I1
tp2048
I-1
s(g1158
g1159
I2012
I2
I1
tp2049
I-1
s(g890
g891
I2012
I5
I1
tp2050
I-1
s(g1410
g1411
I2012
I11
I1
tp2051
I-1
s(g596
g597
I2012
I3
I1
tp2052
F91
s(g1503
g1504
I2012
I2
I1
tp2053
F103.25
s(g1680
g1681
I2012
I12
I1
tp2054
F68.25
s(g1506
g1507
I2012
I3
I1
tp2055
F52.5
s(g1241
g1242
I2012
I7
I1
tp2056
F76.25
s(g130
g131
I2012
I10
I1
tp2057
F71
s(g1247
g1248
I2012
I6
I1
tp2058
I-1
s(g137
g138
I2012
I12
I1
tp2059
I-1
s(g1424
g1425
I2012
I8
I1
tp2060
F80.5
s(g243
g244
I2012
I3
I1
tp2061
I-1
s(g1082
g1083
I2012
I10
I1
tp2062
F100.25
s(g149
g150
I2012
I5
I1
tp2063
F63.75
s(g1343
g1344
I2012
I9
I1
tp2064
F71.75
s(g278
g279
I2012
I9
I1
tp2065
F86.5
s(g79
g80
I2012
I12
I1
tp2066
F88.5
s(g1096
g1097
I2012
I9
I1
tp2067
I-1
s(g1564
g1565
I2012
I7
I1
tp2068
F95.75
s(g984
g985
I2012
I1
I1
tp2069
F72
s(g832
g833
I2012
I12
I1
tp2070
F67.25
s(g725
g726
I2012
I4
I1
tp2071
F88
s(g1272
g1273
I2012
I4
I1
tp2072
F111.25
s(g1631
g1632
I2012
I4
I1
tp2073
F59.5
s(g289
g290
I2012
I7
I1
tp2074
F83.25
s(g1785
g1786
I2012
I2
I1
tp2075
F97.75
s(g1710
g1711
I2012
I8
I1
tp2076
F84
s(g1446
g1447
I2012
I5
I1
tp2077
F83
s(g490
g491
I2012
I8
I1
tp2078
F83.25
s(g1017
g1018
I2012
I4
I1
tp2079
I-1
s(g1552
g1553
I2012
I5
I1
tp2080
I-1
s(g998
g1307
I2012
I11
I1
tp2081
I-1
s(g200
g201
I2012
I8
I1
tp2082
F104.25
s(g1641
g1642
I2012
I6
I1
tp2083
I-1
s(g14
g15
I2012
I12
I1
tp2084
F100.5
s(g926
g927
I2012
I12
I1
tp2085
F45.5
s(g832
g833
I2012
I3
I1
tp2086
F66.25
s(g29
g30
I2012
I12
I1
tp2087
F82.5
s(g35
g36
I2012
I4
I1
tp2088
I-1
s(g698
g699
I2012
I3
I1
tp2089
I-1
s(g1462
g1463
I2012
I11
I1
tp2090
F61
s(g1204
g1205
I2012
I5
I1
tp2091
F101.5
s(g58
g59
I2012
I3
I1
tp2092
F82.25
s(g1552
g1553
I2012
I10
I1
tp2093
I-1
s(g1299
g1300
I2012
I6
I1
tp2094
F101
s(g566
g567
I2012
I9
I1
tp2095
F94.75
s(g1888
g1889
I2012
I4
I1
tp2096
I-1
s(g798
g799
I2012
I9
I1
tp2097
F81.5
s(g698
g699
I2012
I6
I1
tp2098
I-1
s(g83
g84
I2012
I2
I1
tp2099
F105.25
s(g1592
g1593
I2012
I12
I1
tp2100
I-1
s(g1483
g1484
I2012
I4
I1
tp2101
F65.5
s(g184
g185
I2012
I12
I1
tp2102
F89.75
s(g1503
g1822
I2012
I1
I1
tp2103
F73.75
s(g83
g84
I2012
I5
I1
tp2104
I-1
s(g1488
g1489
I2012
I9
I1
tp2105
F90.25
s(g316
g317
I2012
I8
I1
tp2106
F90.75
s(g1226
g1227
I2012
I3
I1
tp2107
F106.75
s(g1399
g1400
I2012
I4
I1
tp2108
F115
s(g79
g80
I2012
I11
I1
tp2109
F97.75
s(g1151
g1152
I2012
I7
I1
tp2110
F105
s(g484
g485
I2012
I2
I1
tp2111
F86.25
s(g971
g972
I2012
I10
I1
tp2112
F87.75
s(g196
g197
I2012
I9
I1
tp2113
I-1
s(g1410
g1411
I2012
I9
I1
tp2114
I-1
s(g1343
g1344
I2012
I2
I1
tp2115
F26.25
s(g123
g124
I2012
I9
I1
tp2116
F79.5
s(g1506
g1507
I2012
I5
I1
tp2117
F61.5
s(g1241
g1242
I2012
I5
I1
tp2118
F60.5
s(g130
g131
I2012
I8
I1
tp2119
F84.5
s(g1592
g1593
I2012
I3
I1
tp2120
I-1
s(g137
g138
I2012
I2
I1
tp2121
I-1
s(g881
g882
I2012
I1
I1
tp2122
F23
s(g114
g179
I2012
I9
I1
tp2123
F83.5
s(g1690
g1691
I2012
I9
I1
tp2124
F68
s(g1082
g1083
I2012
I12
I1
tp2125
F103.5
s(g149
g150
I2012
I11
I1
tp2126
F46.25
s(g55
g771
I2012
I9
I1
tp2127
F91
s(g236
g237
I2012
I2
I1
tp2128
F84.75
s(g1343
g1344
I2012
I11
I1
tp2129
F56.25
s(g998
g999
I2012
I12
I1
tp2130
I-1
s(g1680
g1681
I2012
I1
I1
tp2131
F50.25
s(g1564
g1565
I2012
I9
I1
tp2132
F96.25
s(g588
g589
I2012
I4
I1
tp2133
F62.5
s(g395
g396
I2012
I3
I1
tp2134
F51.5
s(g538
g539
I2012
I8
I1
tp2135
I-1
s(g1272
g1273
I2012
I2
I1
tp2136
I-1
s(g1631
g1632
I2012
I6
I1
tp2137
F78.75
s(g289
g290
I2012
I1
I1
tp2138
F39.25
s(g1446
g1447
I2012
I7
I1
tp2139
F73.5
s(g295
g296
I2012
I3
I1
tp2140
F52.75
s(g1017
g1018
I2012
I6
I1
tp2141
I-1
s(g295
g296
I2012
I1
I1
tp2142
F46
s(g200
g201
I2012
I10
I1
tp2143
F110.75
s(g1641
g1642
I2012
I4
I1
tp2144
I-1
s(g17
g18
I2012
I6
I1
tp2145
I-1
s(g208
g209
I2012
I2
I1
tp2146
F40.5
s(g309
g310
I2012
I2
I1
tp2147
I-1
s(g832
g833
I2012
I1
I1
tp2148
F56.25
s(g29
g30
I2012
I10
I1
tp2149
F101.75
s(g35
g36
I2012
I6
I1
tp2150
I-1
s(g41
g42
I2012
I9
I1
tp2151
I-1
s(g1631
g1632
I2012
I9
I1
tp2152
F81.75
s(g698
g699
I2012
I5
I1
tp2153
I-1
s(g1462
g1463
I2012
I9
I1
tp2154
F75.5
s(g1204
g1205
I2012
I3
I1
tp2155
F99
s(g203
g204
I2012
I8
I1
tp2156
F91.25
s(g1552
g1553
I2012
I8
I1
tp2157
I-1
s(g1299
g1300
I2012
I8
I1
tp2158
F102.5
s(g222
g633
I2012
I4
I1
tp2159
F63.75
s(g247
g248
I2012
I2
I1
tp2160
F98.5
s(g463
g464
I2012
I5
I1
tp2161
F94.25
s(g1641
g1642
I2012
I11
I1
tp2162
I-1
s(g1888
g1889
I2012
I10
I1
tp2163
I-1
s(g407
g408
I2012
I11
I1
tp2164
I-1
s(g371
g541
I2012
I10
I1
tp2165
I-1
s(g1474
g1475
I2012
I6
I1
tp2166
F88.25
s(g228
g229
I2012
I5
I1
tp2167
F105.5
s(g55
g771
I2012
I3
I1
tp2168
F54
s(g313
g314
I2012
I7
I1
tp2169
I-1
s(g1216
g1217
I2012
I2
I1
tp2170
F87
s(g1483
g1484
I2012
I6
I1
tp2171
F80.5
s(g93
g94
I2012
I12
I1
tp2172
I-1
s(g184
g185
I2012
I10
I1
tp2173
I-1
s(g309
g310
I2012
I9
I1
tp2174
I-1
s(g1503
g1822
I2012
I3
I1
tp2175
F74
s(g222
g633
I2012
I11
I1
tp2176
F59.5
s(g337
g338
I2012
I10
I1
tp2177
F86.25
s(g1226
g1227
I2012
I1
I1
tp2178
F102.75
s(g1750
g1751
I2012
I11
I1
tp2179
F78.5
s(g1399
g1400
I2012
I6
I1
tp2180
F109
s(g1151
g1152
I2012
I1
I1
tp2181
F74.5
s(g111
g112
I2012
I3
I1
tp2182
I-1
s(g407
g408
I2012
I4
I1
tp2183
I-1
s(g196
g197
I2012
I11
I1
tp2184
I-1
s(g1158
g1159
I2012
I6
I1
tp2185
I-1
s(g1410
g1411
I2012
I7
I1
tp2186
I-1
s(g1503
g1504
I2012
I6
I1
tp2187
I-1
s(g123
g124
I2012
I11
I1
tp2188
F88.25
s(g1506
g1507
I2012
I7
I1
tp2189
F75.5
s(g1241
g1242
I2012
I3
I1
tp2190
F52.75
s(g556
g557
I2012
I8
I1
tp2191
F85.5
s(g1592
g1593
I2012
I1
I1
tp2192
I-1
s(g1247
g1248
I2012
I2
I1
tp2193
I-1
s(g881
g882
I2012
I3
I1
tp2194
F23
s(g1503
g1822
I2012
I12
I1
tp2195
F76.75
s(g1424
g1425
I2012
I12
I1
tp2196
F70.75
s(g1690
g1691
I2012
I11
I1
tp2197
F79
s(g149
g150
I2012
I9
I1
tp2198
F70.5
s(g1343
g1344
I2012
I5
I1
tp2199
F71
s(g1680
g1681
I2012
I3
I1
tp2200
F58.75
s(g437
g438
I2012
I12
I1
tp2201
I-1
s(g588
g589
I2012
I9
I1
tp2202
F82
s(g725
g726
I2012
I8
I1
tp2203
F85.5
s(g556
g557
I2012
I9
I1
tp2204
F74.5
s(g187
g188
I2012
I4
I1
tp2205
I-1
s(g289
g290
I2012
I3
I1
tp2206
F37.75
s(g1690
g1691
I2012
I4
I1
tp2207
F82.75
s(g1785
g1786
I2012
I6
I1
tp2208
F114
s(g1710
g1711
I2012
I12
I1
tp2209
F40.25
s(g1446
g1447
I2012
I9
I1
tp2210
F87
s(g490
g491
I2012
I12
I1
tp2211
F47.5
s(g383
g384
I2012
I10
I1
tp2212
F77.75
s(g247
g248
I2012
I12
I1
tp2213
F98
s(g998
g1307
I2012
I7
I1
tp2214
I-1
s(g200
g201
I2012
I12
I1
tp2215
F98
s(g14
g15
I2012
I8
I1
tp2216
F101.75
s(g17
g18
I2012
I4
I1
tp2217
I-1
s(g208
g209
I2012
I12
I1
tp2218
F44
s(g1376
g1377
I2012
I3
I1
tp2219
F52.75
s(g832
g833
I2012
I7
I1
tp2220
F100.25
s(g29
g30
I2012
I8
I1
tp2221
F107.75
s(g606
g674
I2012
I12
I1
tp2222
F57.75
s(g41
g42
I2012
I11
I1
tp2223
I-1
s(g1631
g1632
I2012
I11
I1
tp2224
F56.25
s(g688
g689
I2012
I2
I1
tp2225
I-1
s(g1462
g1463
I2012
I7
I1
tp2226
F79.5
s(g1204
g1205
I2012
I1
I1
tp2227
F101.25
s(g1710
g1711
I2012
I3
I1
tp2228
F55.75
s(g463
g794
I2012
I5
I1
tp2229
I-1
s(g742
g743
I2012
I9
I1
tp2230
I-1
s(g55
g56
I2012
I1
I1
tp2231
I-1
s(g1299
g1300
I2012
I10
I1
tp2232
F93.5
s(g523
g663
I2012
I9
I1
tp2233
I-1
s(g247
g248
I2012
I4
I1
tp2234
F103
s(g1641
g1642
I2012
I9
I1
tp2235
I-1
s(g1888
g1889
I2012
I8
I1
tp2236
I-1
s(g70
g71
I2012
I11
I1
tp2237
F101.25
s(g1474
g1475
I2012
I4
I1
tp2238
F65.5
s(g228
g229
I2012
I7
I1
tp2239
F103.25
s(g83
g84
I2012
I8
I1
tp2240
F93.5
s(g484
g485
I2012
I5
I1
tp2241
F85.5
s(g313
g314
I2012
I5
I1
tp2242
I-1
s(g698
g699
I2012
I8
I1
tp2243
I-1
s(g86
g87
I2012
I11
I1
tp2244
F104.75
s(g1483
g1484
I2012
I8
I1
tp2245
F100.5
s(g93
g94
I2012
I10
I1
tp2246
I-1
s(g184
g185
I2012
I8
I1
tp2247
I-1
s(g99
g100
I2012
I10
I1
tp2248
I-1
s(g337
g338
I2012
I8
I1
tp2249
F108.25
s(g1226
g1227
I2012
I7
I1
tp2250
F98
s(g1750
g1751
I2012
I9
I1
tp2251
F91
s(g1399
g1400
I2012
I8
I1
tp2252
I-1
s(g32
g33
I2012
I10
I1
tp2253
F59.25
s(g1151
g1152
I2012
I3
I1
tp2254
F73.25
s(g111
g112
I2012
I1
I1
tp2255
I-1
s(g407
g408
I2012
I6
I1
tp2256
I-1
s(g196
g197
I2012
I5
I1
tp2257
I-1
s(g1158
g1159
I2012
I4
I1
tp2258
I-1
s(g1410
g1411
I2012
I5
I1
tp2259
I-1
s(g463
g464
I2012
I9
I1
tp2260
F118
s(g1503
g1504
I2012
I4
I1
tp2261
I-1
s(g123
g124
I2012
I5
I1
tp2262
F75.5
s(g1506
g1507
I2012
I9
I1
tp2263
F70
s(g1241
g1242
I2012
I1
I1
tp2264
F46.5
s(g130
g131
I2012
I4
I1
tp2265
F58.5
s(g1592
g1593
I2012
I7
I1
tp2266
I-1
s(g137
g138
I2012
I6
I1
tp2267
I-1
s(g881
g882
I2012
I5
I1
tp2268
F64.5
s(g1424
g1425
I2012
I2
I1
tp2269
F71.5
s(g1750
g1751
I2012
I6
I1
tp2270
F85
s(g1343
g1344
I2012
I7
I1
tp2271
F85.5
s(g278
g279
I2012
I3
I1
tp2272
F29.25
s(g1680
g1681
I2012
I5
I1
tp2273
F77.25
s(g984
g985
I2012
I11
I1
tp2274
F88.75
s(g606
g607
I2012
I2
I1
tp2275
F50.5
s(g725
g726
I2012
I10
I1
tp2276
F85.25
s(g187
g188
I2012
I6
I1
tp2277
I-1
s(g1690
g1691
I2012
I6
I1
tp2278
F65.5
s(g1785
g1786
I2012
I4
I1
tp2279
F108.25
s(g133
g134
I2012
I4
I1
tp2280
F76.5
s(g1446
g1447
I2012
I11
I1
tp2281
F94.25
s(g1376
g1377
I2012
I2
I1
tp2282
F46.5
s(g383
g384
I2012
I8
I1
tp2283
F102
s(g463
g794
I2012
I12
I1
tp2284
I-1
s(g392
g393
I2012
I8
I1
tp2285
F99.25
s(g670
g671
I2012
I3
I1
tp2286
F82.75
s(g998
g1307
I2012
I5
I1
tp2287
I-1
s(g14
g15
I2012
I10
I1
tp2288
F102.5
s(g17
g18
I2012
I2
I1
tp2289
I-1
s(g1376
g1377
I2012
I1
I1
tp2290
F46.5
s(g832
g833
I2012
I5
I1
tp2291
F78.25
s(g29
g30
I2012
I6
I1
tp2292
F101.75
s(g35
g36
I2012
I2
I1
tp2293
I-1
s(g1462
g1463
I2012
I5
I1
tp2294
F67.75
s(g1785
g1786
I2012
I11
I1
tp2295
F101.25
s(g55
g771
I2012
I7
I1
tp2296
F92.75
s(g222
g223
I2012
I5
I1
tp2297
F75
s(g954
g955
I2012
I5
I1
tp2298
I-1
s(g79
g80
I2012
I7
I1
tp2299
F107.25
s(g1710
g1711
I2012
I1
I1
tp2300
F44
s(g581
g582
I2012
I4
I1
tp2301
I-1
s(g58
g59
I2012
I9
I1
tp2302
F105
s(g1552
g1553
I2012
I12
I1
tp2303
I-1
s(g1299
g1300
I2012
I12
I1
tp2304
F57.75
s(g247
g248
I2012
I6
I1
tp2305
F98.5
s(g14
g15
I2012
I5
I1
tp2306
F105.75
s(g70
g71
I2012
I9
I1
tp2307
F103.5
s(g1474
g1475
I2012
I10
I1
tp2308
F83
s(g228
g229
I2012
I1
I1
tp2309
F101.25
s(g26
g27
I2012
I5
I1
tp2310
I-1
s(g515
g516
I2012
I4
I1
tp2311
F43.5
s(g606
g674
I2012
I1
I1
tp2312
F54
s(g313
g314
I2012
I11
I1
tp2313
I-1
s(g698
g699
I2012
I10
I1
tp2314
I-1
s(g86
g87
I2012
I9
I1
tp2315
F97.75
s(g566
g567
I2012
I8
I1
tp2316
F98
s(g49
g50
I2012
I10
I1
tp2317
F100
s(g1483
g1484
I2012
I10
I1
tp2318
F89
s(g93
g94
I2012
I8
I1
tp2319
I-1
s(g99
g100
I2012
I8
I1
tp2320
F100.75
s(g1488
g1489
I2012
I3
I1
tp2321
F29.25
s(g1226
g1227
I2012
I5
I1
tp2322
F104.5
s(g1399
g1400
I2012
I10
I1
tp2323
F102.75
s(g247
g248
I2012
I9
I1
tp2324
F96.75
s(g167
g168
I2012
I7
I1
tp2325
F97.75
s(g111
g112
I2012
I7
I1
tp2326
I-1
s(g596
g597
I2012
I9
I1
tp2327
I-1
s(g196
g197
I2012
I7
I1
tp2328
I-1
s(g1410
g1411
I2012
I3
I1
tp2329
I-1
s(g588
g589
I2012
I8
I1
tp2330
F91
s(g1503
g1504
I2012
I10
I1
tp2331
I-1
s(g123
g124
I2012
I7
I1
tp2332
F76.75
s(g1506
g1507
I2012
I11
I1
tp2333
F53.5
s(g86
g87
I2012
I6
I1
tp2334
F113
s(g130
g131
I2012
I2
I1
tp2335
F38.5
s(g1592
g1593
I2012
I5
I1
tp2336
I-1
s(g137
g138
I2012
I4
I1
tp2337
I-1
s(g881
g882
I2012
I7
I1
tp2338
F78.75
s(g1503
g1822
I2012
I8
I1
tp2339
F91.25
s(g1750
g1751
I2012
I4
I1
tp2340
F74
s(g152
g153
I2012
I11
I1
tp2341
I-1
s(g73
g74
I2012
I7
I1
tp2342
F94.5
s(g1343
g1344
I2012
I1
I1
tp2343
F35
s(g278
g279
I2012
I1
I1
tp2344
F30
s(g556
g557
I2012
I12
I1
tp2345
F42
s(g1680
g1681
I2012
I7
I1
tp2346
F96.75
s(g515
g516
I2012
I6
I1
tp2347
F73.75
s(g984
g985
I2012
I9
I1
tp2348
F101.25
s(g137
g138
I2012
I11
I1
tp2349
I-1
s(g596
g597
I2012
I1
I1
tp2350
I-1
s(g538
g539
I2012
I2
I1
tp2351
F100.75
s(g149
g150
I2012
I2
I1
tp2352
F23
s(g1928
g1929
I2012
I1
I1
tp2353
F102.5
s(g998
g1307
I2012
I3
I1
tp2354
I-1
s(g208
g209
I2012
I8
I1
tp2355
F101.25
s(g1376
g1377
I2012
I7
I1
tp2356
F76.25
s(g832
g833
I2012
I11
I1
tp2357
F76
s(g29
g30
I2012
I4
I1
tp2358
F87.75
s(g606
g674
I2012
I4
I1
tp2359
F54.5
s(g222
g633
I2012
I7
I1
tp2360
F88
s(g1462
g1463
I2012
I3
I1
tp2361
F54.25
s(g523
g663
I2012
I12
I1
tp2362
I-1
s(g1785
g1786
I2012
I9
I1
tp2363
F105
s(g1710
g1711
I2012
I7
I1
tp2364
F84.75
s(g316
g317
I2012
I2
I1
tp2365
F102.5
s(g58
g59
I2012
I11
I1
tp2366
F90.75
s(g1552
g1553
I2012
I2
I1
tp2367
I-1
s(g688
g689
I2012
I10
I1
tp2368
I-1
s(g14
g15
I2012
I7
I1
tp2369
F101.5
s(g1888
g1889
I2012
I12
I1
tp2370
I-1
s(g1474
g1475
I2012
I8
I1
tp2371
F99.25
s(g828
g829
I2012
I12
I1
tp2372
I-1
s(g26
g27
I2012
I7
I1
tp2373
I-1
s(g606
g674
I2012
I3
I1
tp2374
F55.5
s(g41
g44
I2012
I11
I1
tp2375
I-1
s(g670
g671
I2012
I2
I1
tp2376
F76.5
s(g83
g84
I2012
I10
I1
tp2377
F99
s(g698
g699
I2012
I12
I1
tp2378
I-1
s(g49
g50
I2012
I8
I1
tp2379
F109.25
s(g1483
g1484
I2012
I12
I1
tp2380
F63.25
s(g93
g94
I2012
I6
I1
tp2381
I-1
s(g1488
g1489
I2012
I1
I1
tp2382
F7.5
s(g337
g338
I2012
I12
I1
tp2383
F61.75
s(g58
g59
I2012
I4
I1
tp2384
F83
s(g1399
g1400
I2012
I12
I1
tp2385
F96.75
s(g566
g567
I2012
I2
I1
tp2386
F34.5
s(g108
g109
I2012
I7
I1
tp2387
I-1
s(g111
g112
I2012
I5
I1
tp2388
I-1
s(g1888
g1889
I2012
I3
I1
tp2389
I-1
s(g596
g597
I2012
I11
I1
tp2390
F86.25
s(g515
g516
I2012
I2
I1
tp2391
F21.75
s(g523
g524
I2012
I10
I1
tp2392
F90.5
s(g1410
g1411
I2012
I1
I1
tp2393
I-1
s(g395
g396
I2012
I7
I1
tp2394
F80.75
s(g1503
g1504
I2012
I8
I1
tp2395
F97.5
s(g123
g124
I2012
I1
I1
tp2396
F95.25
s(g126
g127
I2012
I2
I1
tp2397
F94
s(g225
g226
I2012
I10
I1
tp2398
I-1
s(g86
g87
I2012
I4
I1
tp2399
F111.25
s(g1592
g1593
I2012
I11
I1
tp2400
I-1
s(g90
g91
I2012
I6
I1
tp2401
F112.75
s(g538
g539
I2012
I11
I1
tp2402
I-1
s(g1503
g1822
I2012
I10
I1
tp2403
F100
s(g64
g65
I2012
I6
I1
tp2404
I-1
s(g114
g179
I2012
I5
I1
tp2405
F71
s(g1750
g1751
I2012
I2
I1
tp2406
F65.5
s(g152
g153
I2012
I9
I1
tp2407
I-1
s(g351
g352
I2012
I8
I1
tp2408
I-1
s(g114
g115
I2012
I4
I1
tp2409
I-1
s(g1343
g1344
I2012
I3
I1
tp2410
F44.75
s(g278
g279
I2012
I7
I1
tp2411
F85
s(g1680
g1681
I2012
I9
I1
tp2412
F95.5
s(g236
g237
I2012
I5
I1
tp2413
F76
s(g556
g557
I2012
I1
I1
tp2414
F37.25
s(g133
g134
I2012
I1
I1
tp2415
F54.5
s(g137
g138
I2012
I9
I1
tp2416
I-1
s(g374
g375
I2012
I1
I1
tp2417
F50.5
s(g187
g188
I2012
I2
I1
tp2418
I-1
s(g289
g290
I2012
I9
I1
tp2419
F87.5
s(g1690
g1691
I2012
I2
I1
tp2420
F90.25
s(g214
g215
I2012
I2
I1
tp2421
I-1
s(g173
g174
I2012
I3
I1
tp2422
I-1
s(g588
g589
I2012
I7
I1
tp2423
F91.75
s(g383
g384
I2012
I12
I1
tp2424
F49.75
s(g515
g516
I2012
I8
I1
tp2425
F79.5
s(g998
g1307
I2012
I1
I1
tp2426
I-1
s(g200
g201
I2012
I2
I1
tp2427
I-1
s(g170
g171
I2012
I11
I1
tp2428
F48.25
s(g196
g197
I2012
I6
I1
tp2429
I-1
s(g173
g174
I2012
I8
I1
tp2430
F97.5
s(g1564
g1565
I2012
I2
I1
tp2431
F62
s(g208
g209
I2012
I10
I1
tp2432
F77
s(g1376
g1377
I2012
I5
I1
tp2433
F60.5
s(g581
g582
I2012
I9
I1
tp2434
I-1
s(g832
g833
I2012
I9
I1
tp2435
F92
s(g29
g30
I2012
I2
I1
tp2436
F75
s(g395
g396
I2012
I2
I1
tp2437
F37
s(g41
g42
I2012
I1
I1
tp2438
I-1
s(g1631
g1632
I2012
I1
I1
tp2439
F34
s(g1462
g1463
I2012
I1
I1
tp2440
F51
s(g41
g44
I2012
I2
I1
tp2441
I-1
s(g1710
g1711
I2012
I5
I1
tp2442
F66.5
s(g606
g607
I2012
I8
I1
tp2443
F82.75
s(g203
g204
I2012
I7
I1
tp2444
F90.25
s(g1641
g1642
I2012
I3
I1
tp2445
I-1
s(g14
g15
I2012
I1
I1
tp2446
F99.75
s(g225
g226
I2012
I2
I1
tp2447
I-1
s(g208
g209
I2012
I5
I1
tp2448
F74.75
s(g26
g27
I2012
I1
I1
tp2449
I-1
s(g35
g36
I2012
I9
I1
tp2450
I-1
s(g214
g215
I2012
I10
I1
tp2451
I-1
s(g83
g84
I2012
I12
I1
tp2452
F103
s(g688
g689
I2012
I11
I1
tp2453
I-1
s(g566
g567
I2012
I1
I1
tp2454
F30.25
s(g93
g94
I2012
I4
I1
tp2455
I-1
s(g99
g100
I2012
I12
I1
tp2456
F102.25
s(g998
g1307
I2012
I10
I1
tp2457
I-1
s(g725
g726
I2012
I12
I1
tp2458
F81.5
s(g1488
g1489
I2012
I7
I1
tp2459
I-1
s(g337
g338
I2012
I2
I1
tp2460
F49.5
s(g58
g59
I2012
I6
I1
tp2461
F97.5
s(g670
g671
I2012
I7
I1
tp2462
F88
s(g742
g743
I2012
I3
I1
tp2463
I-1
s(g111
g112
I2012
I11
I1
tp2464
I-1
s(g1888
g1889
I2012
I1
I1
tp2465
I-1
s(g407
g408
I2012
I12
I1
tp2466
I-1
s(g196
g197
I2012
I3
I1
tp2467
I-1
s(g319
g320
I2012
I1
I1
tp2468
F87.75
s(g123
g124
I2012
I3
I1
tp2469
F95
s(g126
g127
I2012
I4
I1
tp2470
F91.75
s(g86
g87
I2012
I2
I1
tp2471
F100
s(g1592
g1593
I2012
I9
I1
tp2472
I-1
s(g90
g91
I2012
I4
I1
tp2473
F105.5
s(g1503
g1822
I2012
I4
I1
tp2474
F76.5
s(g1424
g1425
I2012
I4
I1
tp2475
F81
s(g55
g771
I2012
I5
I1
tp2476
F55.75
s(g243
g244
I2012
I1
I1
tp2477
F101.25
s(g566
g567
I2012
I12
I1
tp2478
F43.5
s(g152
g153
I2012
I7
I1
tp2479
I-1
s(g64
g65
I2012
I10
I1
tp2480
I-1
s(g253
g254
I2012
I7
I1
tp2481
F83.5
s(g395
g396
I2012
I5
I1
tp2482
F66.75
s(g38
g39
I2012
I7
I1
tp2483
F103.5
s(g278
g279
I2012
I5
I1
tp2484
F65.25
s(g55
g771
I2012
I10
I1
tp2485
F73
s(g1680
g1681
I2012
I11
I1
tp2486
F68.25
s(g123
g124
I2012
I12
I1
tp2487
F92.25
s(g556
g557
I2012
I3
I1
tp2488
F44.75
s(g374
g375
I2012
I3
I1
tp2489
F54
s(g187
g188
I2012
I12
I1
tp2490
I-1
s(g289
g290
I2012
I11
I1
tp2491
F56.25
s(g1690
g1691
I2012
I12
I1
tp2492
F83.25
s(g149
g150
I2012
I6
I1
tp2493
F75.5
s(g161
g162
I2012
I2
I1
tp2494
F38.25
s(g383
g384
I2012
I2
I1
tp2495
F32.5
s(g670
g671
I2012
I1
I1
tp2496
F74.75
s(g225
g226
I2012
I5
I1
tp2497
I-1
s(g278
g279
I2012
I10
I1
tp2498
F66.75
s(g200
g201
I2012
I4
I1
tp2499
F107.5
s(g170
g171
I2012
I9
I1
tp2500
F76.25
s(g17
g18
I2012
I12
I1
tp2501
I-1
s(g1564
g1565
I2012
I4
I1
tp2502
F73.5
s(g41
g42
I2012
I3
I1
tp2503
I-1
s(g1631
g1632
I2012
I3
I1
tp2504
F51.25
s(g289
g290
I2012
I4
I1
tp2505
F54.25
s(g588
g589
I2012
I11
I1
tp2506
F59.75
s(g1710
g1711
I2012
I11
I1
tp2507
F55
s(g295
g296
I2012
I11
I1
tp2508
F62
s(g1552
g1553
I2012
I6
I1
tp2509
I-1
s(g8
g9
I2012
I4
I1
tp2510
F45.25
s(g1641
g1642
I2012
I1
I1
tp2511
I-1
s(g14
g15
I2012
I3
I1
tp2512
F103
s(g70
g71
I2012
I3
I1
tp2513
F91.75
s(g208
g209
I2012
I7
I1
tp2514
F93
s(g1474
g1475
I2012
I12
I1
tp2515
F69.25
s(g26
g27
I2012
I3
I1
tp2516
I-1
s(g35
g36
I2012
I11
I1
tp2517
I-1
s(g214
g215
I2012
I8
I1
tp2518
I-1
s(g688
g689
I2012
I5
I1
tp2519
I-1
s(g49
g50
I2012
I12
I1
tp2520
F78.25
s(g407
g408
I2012
I2
I1
tp2521
I-1
s(g93
g94
I2012
I2
I1
tp2522
I-1
s(g99
g100
I2012
I2
I1
tp2523
F99.5
s(g313
g314
I2012
I4
I1
tp2524
I-1
s(g1488
g1489
I2012
I5
I1
tp2525
I-1
s(g484
g485
I2012
I6
I1
tp2526
I-1
s(g319
g320
I2012
I7
I1
tp2527
F69
s(g243
g244
I2012
I8
I1
tp2528
F94.75
s(g463
g464
I2012
I10
I1
tp2529
F110
s(g64
g65
I2012
I11
I1
tp2530
I-1
s(g111
g112
I2012
I9
I1
tp2531
I-1
s(g1888
g1889
I2012
I7
I1
tp2532
I-1
s(g596
g597
I2012
I7
I1
tp2533
F68
s(g32
g33
I2012
I5
I1
tp2534
F60.25
s(g1503
g1504
I2012
I12
I1
tp2535
I-1
s(g126
g127
I2012
I6
I1
tp2536
F83
s(g83
g84
I2012
I1
I1
tp2537
F104.5
s(g90
g91
I2012
I2
I1
tp2538
F85.25
s(g606
g607
I2012
I7
I1
tp2539
F77.5
s(g236
g237
I2012
I6
I1
tp2540
F64.25
s(g1503
g1822
I2012
I6
I1
tp2541
F82.75
s(g152
g153
I2012
I5
I1
tp2542
I-1
s(g395
g396
I2012
I1
I1
tp2543
F43.5
s(g253
g254
I2012
I5
I1
tp2544
F70.5
s(g130
g131
I2012
I11
I1
tp2545
F62.25
s(g463
g464
I2012
I11
I1
tp2546
F93.5
s(g374
g375
I2012
I5
I1
tp2547
F75
s(g143
g144
I2012
I9
I1
tp2548
I-1
s(g149
g150
I2012
I4
I1
tp2549
F52
s(g161
g162
I2012
I4
I1
tp2550
F54.75
s(g271
g272
I2012
I12
I1
tp2551
F48.75
s(g278
g279
I2012
I8
I1
tp2552
F90.5
s(g200
g201
I2012
I6
I1
tp2553
F118.25
s(g392
g393
I2012
I4
I1
tp2554
F61
s(g309
g367
I2012
I5
I1
tp2555
I-1
s(g17
g18
I2012
I10
I1
tp2556
I-1
s(g1564
g1565
I2012
I6
I1
tp2557
F91
s(g170
g171
I2012
I12
I1
tp2558
F38.5
s(g371
g372
I2012
I6
I1
tp2559
F77.75
s(g41
g42
I2012
I5
I1
tp2560
I-1
s(g1631
g1632
I2012
I5
I1
tp2561
F77.25
s(g289
g290
I2012
I6
I1
tp2562
F77.75
s(g1785
g1786
I2012
I3
I1
tp2563
F104.25
s(g203
g204
I2012
I10
I1
tp2564
F90.25
s(g1710
g1711
I2012
I9
I1
tp2565
F76.75
s(g1552
g1553
I2012
I4
I1
tp2566
I-1
s(g2
g3
I2012
I4
I1
tp2567
F57.5
s(g200
g201
I2012
I9
I1
tp2568
F105.25
s(g8
g9
I2012
I6
I1
tp2569
F73.5
s(g1641
g1642
I2012
I7
I1
tp2570
I-1
s(g70
g71
I2012
I1
I1
tp2571
F92.5
s(g798
g799
I2012
I2
I1
tp2572
F26.75
s(g20
g21
I2012
I4
I1
tp2573
I-1
s(g228
g229
I2012
I9
I1
tp2574
F105.5
s(g133
g134
I2012
I5
I1
tp2575
F89
s(g606
g674
I2012
I7
I1
tp2576
F77.5
s(g35
g36
I2012
I5
I1
tp2577
I-1
s(g38
g39
I2012
I5
I1
tp2578
F93.75
s(g688
g689
I2012
I7
I1
tp2579
I-1
s(g38
g39
I2012
I8
I1
tp2580
I-1
s(g49
g50
I2012
I2
I1
tp2581
F71.25
s(g120
g411
I2012
I5
I1
tp2582
I-1
s(g222
g633
I2012
I9
I1
tp2583
F93
s(g337
g338
I2012
I6
I1
tp2584
F91.75
s(g58
g59
I2012
I2
I1
tp2585
F78.75
s(g319
g320
I2012
I5
I1
tp2586
F77.5
s(g64
g65
I2012
I5
I1
tp2587
I-1
s(g670
g671
I2012
I12
I1
tp2588
F76
s(g371
g541
I2012
I7
I1
tp2589
I-1
s(g1888
g1889
I2012
I5
I1
tp2590
I-1
s(g407
g408
I2012
I8
I1
tp2591
I-1
s(g32
g33
I2012
I12
I1
tp2592
F35
s(g239
g240
I2012
I6
I1
tp2593
F81
s(g126
g127
I2012
I8
I1
tp2594
F78.25
s(g83
g84
I2012
I3
I1
tp2595
F102.25
s(g271
g272
I2012
I4
I1
tp2596
F57
s(g236
g237
I2012
I4
I1
tp2597
F78.25
s(g1750
g1751
I2012
I12
I1
tp2598
F68.5
s(g152
g153
I2012
I3
I1
tp2599
I-1
s(g253
g254
I2012
I3
I1
tp2600
F53.75
s(g123
g124
I2012
I8
I1
tp2601
F75
s(g130
g131
I2012
I9
I1
tp2602
F76
s(g137
g138
I2012
I3
I1
tp2603
I-1
s(g374
g375
I2012
I7
I1
tp2604
F96
s(g187
g188
I2012
I8
I1
tp2605
I-1
s(g143
g144
I2012
I11
I1
tp2606
I-1
s(g1690
g1691
I2012
I8
I1
tp2607
F58.25
s(g149
g150
I2012
I10
I1
tp2608
F60.5
s(g606
g607
I2012
I6
I1
tp2609
F73.25
s(g161
g162
I2012
I6
I1
tp2610
F73.25
s(g383
g384
I2012
I6
I1
tp2611
F82.25
s(g167
g168
I2012
I8
I1
tp2612
F99.75
s(g108
g109
I2012
I5
I1
tp2613
I-1
s(g392
g393
I2012
I6
I1
tp2614
F92
s(g309
g367
I2012
I7
I1
tp2615
I-1
s(g228
g229
I2012
I3
I1
tp2616
F101.5
s(g17
g18
I2012
I8
I1
tp2617
I-1
s(g1564
g1565
I2012
I8
I1
tp2618
F102
s(g120
g411
I2012
I4
I1
tp2619
I-1
s(g371
g372
I2012
I4
I1
tp2620
F56.25
s(g41
g42
I2012
I7
I1
tp2621
I-1
s(g1631
g1632
I2012
I7
I1
tp2622
F90.5
s(g1785
g1786
I2012
I1
I1
tp2623
F97
s(g184
g185
I2012
I2
I1
tp2624
F88.5
s(g463
g794
I2012
I11
I1
tp2625
I-1
s(g2
g3
I2012
I6
I1
tp2626
F74.25
s(g200
g201
I2012
I11
I1
tp2627
F110
s(g1641
g1642
I2012
I5
I1
tp2628
I-1
s(g120
g411
I2012
I8
I1
tp2629
I-1
s(g17
g18
I2012
I7
I1
tp2630
I-1
s(g70
g71
I2012
I7
I1
tp2631
F102.5
s(g208
g209
I2012
I3
I1
tp2632
F51.5
s(g20
g21
I2012
I6
I1
tp2633
I-1
s(g228
g229
I2012
I11
I1
tp2634
F105.75
s(g133
g134
I2012
I7
I1
tp2635
F101.25
s(g29
g30
I2012
I11
I1
tp2636
F95
s(g313
g314
I2012
I9
I1
tp2637
I-1
s(g35
g36
I2012
I7
I1
tp2638
I-1
s(g214
g215
I2012
I12
I1
tp2639
I-1
s(g41
g42
I2012
I8
I1
tp2640
I-1
s(g484
g485
I2012
I3
I1
tp2641
F86.75
s(g688
g689
I2012
I9
I1
tp2642
I-1
s(g688
g689
I2012
I1
I1
tp2643
I-1
s(g581
g582
I2012
I3
I1
tp2644
I-1
s(g371
g541
I2012
I9
I1
tp2645
I-1
s(g99
g100
I2012
I6
I1
tp2646
F101.75
s(g337
g338
I2012
I4
I1
tp2647
F68.5
s(g58
g59
I2012
I12
I1
tp2648
F84.5
s(g319
g320
I2012
I3
I1
tp2649
F91
s(g170
g171
I2012
I8
I1
tp2650
F95.75
s(g61
g62
I2012
I7
I1
tp2651
F97.75
s(g64
g65
I2012
I7
I1
tp2652
I-1
s(g371
g541
I2012
I5
I1
tp2653
I-1
s(g1888
g1889
I2012
I11
I1
tp2654
I-1
s(g407
g408
I2012
I10
I1
tp2655
I-1
s(g497
g498
I2012
I2
I1
tp2656
I-1
s(g228
g229
I2012
I4
I1
tp2657
F104
s(g515
g516
I2012
I11
I1
tp2658
F48
s(g126
g127
I2012
I10
I1
tp2659
F79.5
s(g313
g314
I2012
I6
I1
tp2660
I-1
s(g86
g87
I2012
I12
I1
tp2661
F99.25
s(g1136
g1137
I2012
I9
I1
tp2662
F107.5
s(g96
g97
I2012
I4
I1
tp2663
I-1
s(g1503
g1822
I2012
I2
I1
tp2664
F71.5
s(g102
g103
I2012
I2
I1
tp2665
I-1
s(g337
g338
I2012
I11
I1
tp2666
F76.25
s(g578
g579
I2012
I12
I1
tp2667
F103.5
s(g1750
g1751
I2012
I10
I1
tp2668
F84.75
s(g1410
g1411
I2012
I8
I1
tp2669
I-1
s(g152
g153
I2012
I1
I1
tp2670
I-1
s(g253
g254
I2012
I1
I1
tp2671
F47
s(g111
g112
I2012
I2
I1
tp2672
I-1
s(g5
g118
I2012
I12
I1
tp2673
I-1
s(g123
g124
I2012
I10
I1
tp2674
F81.25
s(g130
g131
I2012
I7
I1
tp2675
F82.5
s(g351
g352
I2012
I4
I1
tp2676
I-1
s(g137
g138
I2012
I1
I1
tp2677
I-1
s(g20
g21
I2012
I3
I1
tp2678
I-1
s(g374
g375
I2012
I9
I1
tp2679
F95
s(g187
g188
I2012
I10
I1
tp2680
I-1
s(g289
g290
I2012
I5
I1
tp2681
F63
s(g1690
g1691
I2012
I10
I1
tp2682
F67.5
s(g149
g150
I2012
I8
I1
tp2683
F79.25
s(g606
g607
I2012
I4
I1
tp2684
F54.5
s(g161
g162
I2012
I8
I1
tp2685
F81.5
s(g383
g384
I2012
I4
I1
tp2686
F53
s(g271
g272
I2012
I8
I1
tp2687
F93.75
s(g392
g393
I2012
I10
I1
tp2688
F78.75
s(g247
g248
I2012
I11
I1
tp2689
F97
s(g278
g279
I2012
I12
I1
tp2690
F40.25
s(g170
g171
I2012
I3
I1
tp2691
F23.25
s(g309
g367
I2012
I1
I1
tp2692
I-1
s(g1564
g1565
I2012
I10
I1
tp2693
F87.5
s(g181
g182
I2012
I2
I1
tp2694
I-1
s(g371
g372
I2012
I2
I1
tp2695
F23.25
s(g187
g188
I2012
I5
I1
tp2696
I-1
s(g954
g955
I2012
I2
I1
tp2697
I-1
s(g289
g290
I2012
I2
I1
tp2698
F34.5
s(g190
g191
I2012
I12
I1
tp2699
F100
s(g1785
g1786
I2012
I7
I1
tp2700
F109.75
s(g954
g955
I2012
I7
I1
tp2701
I-1
s(g581
g582
I2012
I10
I1
tp2702
I-1
s(g193
g194
I2012
I3
I1
tp2703
I-1
s(g383
g384
I2012
I11
I1
tp2704
F61.5
s(g5
g6
I2012
I10
I1
tp2705
F93.75
s(g8
g9
I2012
I2
I1
tp2706
F21
s(g14
g15
I2012
I9
I1
tp2707
F102
s(g17
g18
I2012
I5
I1
tp2708
I-1
s(g70
g71
I2012
I5
I1
tp2709
F91.75
s(g515
g516
I2012
I10
I1
tp2710
F57.25
s(g26
g27
I2012
I9
I1
tp2711
I-1
s(g29
g30
I2012
I9
I1
tp2712
F106.75
s(g196
g197
I2012
I1
I1
tp2713
I-1
s(g35
g36
I2012
I1
I1
tp2714
I-1
s(g38
g39
I2012
I9
I1
tp2715
I-1
s(g41
g42
I2012
I10
I1
tp2716
I-1
s(g688
g689
I2012
I3
I1
tp2717
I-1
s(g49
g50
I2012
I6
I1
tp2718
F100.75
s(g99
g100
I2012
I4
I1
tp2719
I-1
s(g395
g396
I2012
I4
I1
tp2720
F56.5
s(g55
g56
I2012
I11
I1
tp2721
I-1
s(g510
g511
I2012
I3
I1
tp2722
F56
s(g61
g62
I2012
I5
I1
tp2723
F103.5
s(g247
g248
I2012
I5
I1
tp2724
F101
s(g167
g168
I2012
I5
I1
tp2725
F76.5
s(g1888
g1889
I2012
I9
I1
tp2726
I-1
s(g70
g71
I2012
I10
I1
tp2727
F102.25
s(g228
g229
I2012
I6
I1
tp2728
F105.25
s(g76
g77
I2012
I1
I1
tp2729
F36.25
s(g126
g127
I2012
I12
I1
tp2730
F84
s(g83
g84
I2012
I7
I1
tp2731
F95
s(g86
g87
I2012
I10
I1
tp2732
F107.5
s(g90
g91
I2012
I12
I1
tp2733
F90.75
s(g93
g94
I2012
I11
I1
tp2734
I-1
s(g96
g97
I2012
I6
I1
tp2735
I-1
s(g99
g100
I2012
I11
I1
tp2736
F102.25
s(g337
g338
I2012
I9
I1
tp2737
F100.5
s(g1750
g1751
I2012
I8
I1
tp2738
F90
s(g190
g191
I2012
I10
I1
tp2739
F104.5
s(g73
g74
I2012
I5
I1
tp2740
F100.5
s(g371
g541
I2012
I8
I1
tp2741
I-1
s(g243
g244
I2012
I2
I1
tp2742
F100.5
s(g123
g124
I2012
I4
I1
tp2743
F91.5
s(g208
g209
I2012
I6
I1
tp2744
F89.75
s(g130
g131
I2012
I5
I1
tp2745
F69.5
s(g243
g244
I2012
I6
I1
tp2746
F97.25
s(g351
g352
I2012
I6
I1
tp2747
I-1
s(g137
g138
I2012
I7
I1
tp2748
I-1
s(g374
g375
I2012
I11
I1
tp2749
F67.75
s(g725
g726
I2012
I2
I1
tp2750
F82.75
s(g146
g147
I2012
I12
I1
tp2751
I-1
s(g152
g153
I2012
I12
I1
tp2752
I-1
s(g158
g159
I2012
I9
I1
tp2753
F77.5
s(g161
g162
I2012
I10
I1
tp2754
F66.75
s(g164
g165
I2012
I1
I1
tp2755
I-1
s(g271
g272
I2012
I10
I1
tp2756
F65.5
s(g371
g541
I2012
I4
I1
tp2757
I-1
s(g278
g279
I2012
I2
I1
tp2758
F16.25
s(g170
g171
I2012
I1
I1
tp2759
F25.25
s(g606
g674
I2012
I11
I1
tp2760
F64
s(g282
g283
I2012
I12
I1
tp2761
I-1
s(g309
g367
I2012
I3
I1
tp2762
I-1
s(g176
g177
I2012
I2
I1
tp2763
I-1
s(g1564
g1565
I2012
I12
I1
tp2764
F67
s(g181
g182
I2012
I4
I1
tp2765
I-1
s(g395
g396
I2012
I10
I1
tp2766
F67.5
s(g1424
g1425
I2012
I6
I1
tp2767
F84.25
s(g606
g674
I2012
I6
I1
tp2768
F73.25
s(g187
g188
I2012
I7
I1
tp2769
I-1
s(g222
g633
I2012
I5
I1
tp2770
F75
s(g289
g290
I2012
I12
I1
tp2771
F46.75
s(g523
g663
I2012
I2
I1
tp2772
I-1
s(g1785
g1786
I2012
I5
I1
tp2773
F112.75
s(g193
g194
I2012
I1
I1
tp2774
I-1
s(g383
g384
I2012
I9
I1
tp2775
F94.5
s(g190
g191
I2012
I2
I1
tp2776
F94
s.